
midi.elf:     file format elf32-avr

Sections:
Idx Name          Size      VMA       LMA       File off  Algn
  0 .text         00000810  00000000  00000000  00000094  2**1
                  CONTENTS, ALLOC, LOAD, READONLY, CODE
  1 .data         00000006  00800060  00000810  000008a4  2**0
                  CONTENTS, ALLOC, LOAD, DATA
  2 .bss          0000003b  00800066  00800066  000008aa  2**0
                  ALLOC
  3 .comment      00000030  00000000  00000000  000008aa  2**0
                  CONTENTS, READONLY

Disassembly of section .text:

00000000 <__vectors>:
   0:	6b c0       	rjmp	.+214    	; 0xd8 <__ctors_end>
   2:	9f c0       	rjmp	.+318    	; 0x142 <__vector_1>
   4:	84 c0       	rjmp	.+264    	; 0x10e <__bad_interrupt>
   6:	83 c0       	rjmp	.+262    	; 0x10e <__bad_interrupt>
   8:	82 c0       	rjmp	.+260    	; 0x10e <__bad_interrupt>
   a:	81 c0       	rjmp	.+258    	; 0x10e <__bad_interrupt>
   c:	80 c0       	rjmp	.+256    	; 0x10e <__bad_interrupt>
   e:	7f c0       	rjmp	.+254    	; 0x10e <__bad_interrupt>
  10:	7e c0       	rjmp	.+252    	; 0x10e <__bad_interrupt>
  12:	7d c0       	rjmp	.+250    	; 0x10e <__bad_interrupt>
  14:	7c c0       	rjmp	.+248    	; 0x10e <__bad_interrupt>
  16:	7b c0       	rjmp	.+246    	; 0x10e <__bad_interrupt>
  18:	7a c0       	rjmp	.+244    	; 0x10e <__bad_interrupt>
  1a:	79 c0       	rjmp	.+242    	; 0x10e <__bad_interrupt>
  1c:	78 c0       	rjmp	.+240    	; 0x10e <__bad_interrupt>
  1e:	77 c0       	rjmp	.+238    	; 0x10e <__bad_interrupt>
  20:	76 c0       	rjmp	.+236    	; 0x10e <__bad_interrupt>
  22:	75 c0       	rjmp	.+234    	; 0x10e <__bad_interrupt>
  24:	74 c0       	rjmp	.+232    	; 0x10e <__bad_interrupt>

00000026 <__trampolines_end>:
  26:	12 03       	mulsu	r17, r18
  28:	4d 00       	.word	0x004d	; ????
  2a:	69 00       	.word	0x0069	; ????
  2c:	43 00       	.word	0x0043	; ????
  2e:	6f 00       	.word	0x006f	; ????
  30:	4d 00       	.word	0x004d	; ????
  32:	6f 00       	.word	0x006f	; ????
  34:	63 00       	.word	0x0063	; ????
  36:	6f 00       	.word	0x006f	; ????

00000038 <usbDescriptorStringVendor>:
  38:	24 03 6b 00 75 00 77 00 61 00 74 00 61 00 79 00     $.k.u.w.a.t.a.y.
  48:	40 00 6e 00 69 00 66 00 74 00 79 00 2e 00 63 00     @.n.i.f.t.y...c.
  58:	6f 00 6d 00                                         o.m.

0000005c <usbDescriptorString0>:
  5c:	04 03 09 04                                         ....

00000060 <configDescrMIDI>:
  60:	09 02 65 00 02 01 00 80 32 09 04 00 00 00 01 01     ..e.....2.......
  70:	00 00 09 24 01 00 01 09 00 01 01 09 04 01 00 02     ...$............
  80:	01 03 00 00 07 24 01 00 01 41 00 06 24 02 01 01     .....$...A..$...
  90:	00 06 24 02 02 02 00 09 24 03 01 03 01 02 01 00     ..$.....$.......
  a0:	09 24 03 02 04 01 01 01 00 09 05 01 03 08 00 0a     .$..............
  b0:	00 00 05 25 01 01 01 09 05 81 03 08 00 0a 00 00     ...%............
  c0:	05 25 01 01 03                                      .%...

000000c5 <deviceDescrMIDI>:
  c5:	12 01 10 01 00 00 00 08 c0 16 e4 05 01 00 01 02     ................
  d5:	00 01 00                                            ...

000000d8 <__ctors_end>:
  d8:	11 24       	eor	r1, r1
  da:	1f be       	out	0x3f, r1	; 63
  dc:	cf e5       	ldi	r28, 0x5F	; 95
  de:	d4 e0       	ldi	r29, 0x04	; 4
  e0:	de bf       	out	0x3e, r29	; 62
  e2:	cd bf       	out	0x3d, r28	; 61

000000e4 <__do_copy_data>:
  e4:	10 e0       	ldi	r17, 0x00	; 0
  e6:	a0 e6       	ldi	r26, 0x60	; 96
  e8:	b0 e0       	ldi	r27, 0x00	; 0
  ea:	e0 e1       	ldi	r30, 0x10	; 16
  ec:	f8 e0       	ldi	r31, 0x08	; 8
  ee:	02 c0       	rjmp	.+4      	; 0xf4 <__do_copy_data+0x10>
  f0:	05 90       	lpm	r0, Z+
  f2:	0d 92       	st	X+, r0
  f4:	a6 36       	cpi	r26, 0x66	; 102
  f6:	b1 07       	cpc	r27, r17
  f8:	d9 f7       	brne	.-10     	; 0xf0 <__do_copy_data+0xc>

000000fa <__do_clear_bss>:
  fa:	20 e0       	ldi	r18, 0x00	; 0
  fc:	a6 e6       	ldi	r26, 0x66	; 102
  fe:	b0 e0       	ldi	r27, 0x00	; 0
 100:	01 c0       	rjmp	.+2      	; 0x104 <.do_clear_bss_start>

00000102 <.do_clear_bss_loop>:
 102:	1d 92       	st	X+, r1

00000104 <.do_clear_bss_start>:
 104:	a1 3a       	cpi	r26, 0xA1	; 161
 106:	b2 07       	cpc	r27, r18
 108:	e1 f7       	brne	.-8      	; 0x102 <.do_clear_bss_loop>
 10a:	11 d3       	rcall	.+1570   	; 0x72e <main>
 10c:	7f c3       	rjmp	.+1790   	; 0x80c <_exit>

0000010e <__bad_interrupt>:
 10e:	78 cf       	rjmp	.-272    	; 0x0 <__vectors>

00000110 <usbCrc16>:
 110:	a8 2f       	mov	r26, r24
 112:	b9 2f       	mov	r27, r25
 114:	80 e0       	ldi	r24, 0x00	; 0
 116:	90 e0       	ldi	r25, 0x00	; 0
 118:	41 e0       	ldi	r20, 0x01	; 1
 11a:	50 ea       	ldi	r21, 0xA0	; 160
 11c:	60 95       	com	r22
 11e:	30 e0       	ldi	r19, 0x00	; 0
 120:	09 c0       	rjmp	.+18     	; 0x134 <usbCrcLoopEntry>

00000122 <usbCrcByteLoop>:
 122:	2d 91       	ld	r18, X+
 124:	82 27       	eor	r24, r18

00000126 <usbCrcBitLoop>:
 126:	97 95       	ror	r25
 128:	87 95       	ror	r24
 12a:	10 f0       	brcs	.+4      	; 0x130 <usbCrcNoXor>
 12c:	84 27       	eor	r24, r20
 12e:	95 27       	eor	r25, r21

00000130 <usbCrcNoXor>:
 130:	30 5e       	subi	r19, 0xE0	; 224
 132:	c8 f3       	brcs	.-14     	; 0x126 <usbCrcBitLoop>

00000134 <usbCrcLoopEntry>:
 134:	6f 5f       	subi	r22, 0xFF	; 255
 136:	a8 f3       	brcs	.-22     	; 0x122 <usbCrcByteLoop>

00000138 <usbCrcReady>:
 138:	08 95       	ret

0000013a <usbCrc16Append>:
 13a:	ea df       	rcall	.-44     	; 0x110 <usbCrc16>
 13c:	8d 93       	st	X+, r24
 13e:	9d 93       	st	X+, r25
 140:	08 95       	ret

00000142 <__vector_1>:
 142:	cf 93       	push	r28
 144:	cf b7       	in	r28, 0x3f	; 63
 146:	cf 93       	push	r28
 148:	df 93       	push	r29

0000014a <waitForJ>:
 14a:	c3 95       	inc	r28
 14c:	84 9b       	sbis	0x10, 4	; 16
 14e:	e9 f7       	brne	.-6      	; 0x14a <waitForJ>

00000150 <waitForK>:
 150:	84 9b       	sbis	0x10, 4	; 16
 152:	0b c0       	rjmp	.+22     	; 0x16a <foundK>
 154:	84 9b       	sbis	0x10, 4	; 16
 156:	09 c0       	rjmp	.+18     	; 0x16a <foundK>
 158:	84 9b       	sbis	0x10, 4	; 16
 15a:	07 c0       	rjmp	.+14     	; 0x16a <foundK>
 15c:	84 9b       	sbis	0x10, 4	; 16
 15e:	05 c0       	rjmp	.+10     	; 0x16a <foundK>
 160:	84 9b       	sbis	0x10, 4	; 16
 162:	03 c0       	rjmp	.+6      	; 0x16a <foundK>
 164:	84 9b       	sbis	0x10, 4	; 16
 166:	01 c0       	rjmp	.+2      	; 0x16a <foundK>
 168:	8e c0       	rjmp	.+284    	; 0x286 <sofError>

0000016a <foundK>:
 16a:	6f 93       	push	r22
 16c:	c0 91 84 00 	lds	r28, 0x0084
 170:	dd 27       	eor	r29, r29
 172:	c5 57       	subi	r28, 0x75	; 117
 174:	df 4f       	sbci	r29, 0xFF	; 255
 176:	2f 93       	push	r18
 178:	65 e5       	ldi	r22, 0x55	; 85
 17a:	84 9b       	sbis	0x10, 4	; 16
 17c:	03 c0       	rjmp	.+6      	; 0x184 <haveTwoBitsK>
 17e:	2f 91       	pop	r18
 180:	6f 91       	pop	r22
 182:	e6 cf       	rjmp	.-52     	; 0x150 <waitForK>

00000184 <haveTwoBitsK>:
 184:	0f 93       	push	r16
 186:	1f 93       	push	r17
 188:	4f 93       	push	r20
 18a:	20 e0       	ldi	r18, 0x00	; 0
 18c:	40 e1       	ldi	r20, 0x10	; 16
 18e:	5f 93       	push	r21
 190:	00 b3       	in	r16, 0x10	; 16
 192:	04 71       	andi	r16, 0x14	; 20
 194:	04 fb       	bst	r16, 4
 196:	27 f9       	bld	r18, 7
 198:	3f 93       	push	r19
 19a:	50 e0       	ldi	r21, 0x00	; 0
 19c:	3b e0       	ldi	r19, 0x0B	; 11
 19e:	39 c0       	rjmp	.+114    	; 0x212 <rxbit1>

000001a0 <unstuff6>:
 1a0:	14 71       	andi	r17, 0x14	; 20
 1a2:	40 64       	ori	r20, 0x40	; 64
 1a4:	2f 77       	andi	r18, 0x7F	; 127
 1a6:	01 2f       	mov	r16, r17
 1a8:	5f 5f       	subi	r21, 0xFF	; 255
 1aa:	1e c0       	rjmp	.+60     	; 0x1e8 <didUnstuff6>

000001ac <unstuff7>:
 1ac:	40 68       	ori	r20, 0x80	; 128
 1ae:	10 b3       	in	r17, 0x10	; 16
 1b0:	14 71       	andi	r17, 0x14	; 20
 1b2:	2f 77       	andi	r18, 0x7F	; 127
 1b4:	52 50       	subi	r21, 0x02	; 2
 1b6:	1f c0       	rjmp	.+62     	; 0x1f6 <didUnstuff7>

000001b8 <unstuffEven>:
 1b8:	40 64       	ori	r20, 0x40	; 64
 1ba:	00 b3       	in	r16, 0x10	; 16
 1bc:	2f 77       	andi	r18, 0x7F	; 127
 1be:	04 71       	andi	r16, 0x14	; 20
 1c0:	d1 f1       	breq	.+116    	; 0x236 <se0>
 1c2:	5f 5f       	subi	r21, 0xFF	; 255
 1c4:	00 c0       	rjmp	.+0      	; 0x1c6 <unstuffEven+0xe>
 1c6:	23 c0       	rjmp	.+70     	; 0x20e <didUnstuffE>

000001c8 <unstuffOdd>:
 1c8:	40 62       	ori	r20, 0x20	; 32
 1ca:	10 b3       	in	r17, 0x10	; 16
 1cc:	2f 77       	andi	r18, 0x7F	; 127
 1ce:	14 71       	andi	r17, 0x14	; 20
 1d0:	91 f1       	breq	.+100    	; 0x236 <se0>
 1d2:	5f 5f       	subi	r21, 0xFF	; 255
 1d4:	00 c0       	rjmp	.+0      	; 0x1d6 <unstuffOdd+0xe>
 1d6:	25 c0       	rjmp	.+74     	; 0x222 <didUnstuffO>

000001d8 <rxByteLoop>:
 1d8:	04 71       	andi	r16, 0x14	; 20
 1da:	10 27       	eor	r17, r16
 1dc:	51 50       	subi	r21, 0x01	; 1
 1de:	12 f4       	brpl	.+4      	; 0x1e4 <skipLeap>
 1e0:	5d 5f       	subi	r21, 0xFD	; 253
	...

000001e4 <skipLeap>:
 1e4:	11 50       	subi	r17, 0x01	; 1
 1e6:	27 95       	ror	r18

000001e8 <didUnstuff6>:
 1e8:	2c 3f       	cpi	r18, 0xFC	; 252
 1ea:	10 b3       	in	r17, 0x10	; 16
 1ec:	c8 f6       	brcc	.-78     	; 0x1a0 <unstuff6>
 1ee:	14 71       	andi	r17, 0x14	; 20
 1f0:	01 27       	eor	r16, r17
 1f2:	01 50       	subi	r16, 0x01	; 1
 1f4:	27 95       	ror	r18

000001f6 <didUnstuff7>:
 1f6:	2c 3f       	cpi	r18, 0xFC	; 252
 1f8:	c8 f6       	brcc	.-78     	; 0x1ac <unstuff7>
 1fa:	42 27       	eor	r20, r18
 1fc:	49 93       	st	Y+, r20

000001fe <rxBitLoop>:
 1fe:	00 b3       	in	r16, 0x10	; 16
 200:	04 71       	andi	r16, 0x14	; 20
 202:	10 27       	eor	r17, r16
 204:	4f 73       	andi	r20, 0x3F	; 63
 206:	11 50       	subi	r17, 0x01	; 1
 208:	27 95       	ror	r18
 20a:	2c 3f       	cpi	r18, 0xFC	; 252
 20c:	a8 f6       	brcc	.-86     	; 0x1b8 <unstuffEven>

0000020e <didUnstuffE>:
 20e:	46 95       	lsr	r20
 210:	46 95       	lsr	r20

00000212 <rxbit1>:
 212:	10 b3       	in	r17, 0x10	; 16
 214:	14 71       	andi	r17, 0x14	; 20
 216:	79 f0       	breq	.+30     	; 0x236 <se0>
 218:	01 27       	eor	r16, r17
 21a:	01 50       	subi	r16, 0x01	; 1
 21c:	27 95       	ror	r18
 21e:	2c 3f       	cpi	r18, 0xFC	; 252
 220:	98 f6       	brcc	.-90     	; 0x1c8 <unstuffOdd>

00000222 <didUnstuffO>:
 222:	6b 5a       	subi	r22, 0xAB	; 171
 224:	60 f3       	brcs	.-40     	; 0x1fe <rxBitLoop>
 226:	31 50       	subi	r19, 0x01	; 1
 228:	00 b3       	in	r16, 0x10	; 16
 22a:	b0 f6       	brcc	.-84     	; 0x1d8 <rxByteLoop>
 22c:	00 c0       	rjmp	.+0      	; 0x22e <overflow>

0000022e <overflow>:
 22e:	10 e4       	ldi	r17, 0x40	; 64
 230:	1a bf       	out	0x3a, r17	; 58

00000232 <ignorePacket>:
 232:	00 27       	eor	r16, r16
 234:	1c c0       	rjmp	.+56     	; 0x26e <storeTokenAndReturn>

00000236 <se0>:
 236:	3b 50       	subi	r19, 0x0B	; 11
 238:	31 95       	neg	r19
 23a:	c3 1b       	sub	r28, r19
 23c:	d0 40       	sbci	r29, 0x00	; 0
 23e:	10 e4       	ldi	r17, 0x40	; 64
 240:	1a bf       	out	0x3a, r17	; 58
 242:	08 81       	ld	r16, Y
 244:	03 3c       	cpi	r16, 0xC3	; 195
 246:	21 f1       	breq	.+72     	; 0x290 <handleData>
 248:	0b 34       	cpi	r16, 0x4B	; 75
 24a:	11 f1       	breq	.+68     	; 0x290 <handleData>
 24c:	20 91 82 00 	lds	r18, 0x0082
 250:	19 81       	ldd	r17, Y+1	; 0x01
 252:	11 0f       	add	r17, r17
 254:	12 13       	cpse	r17, r18
 256:	ed cf       	rjmp	.-38     	; 0x232 <ignorePacket>
 258:	4a 81       	ldd	r20, Y+2	; 0x02
 25a:	44 1f       	adc	r20, r20
 25c:	09 36       	cpi	r16, 0x69	; 105
 25e:	69 f1       	breq	.+90     	; 0x2ba <handleIn>
 260:	0d 32       	cpi	r16, 0x2D	; 45
 262:	11 f0       	breq	.+4      	; 0x268 <handleSetupOrOut>
 264:	01 3e       	cpi	r16, 0xE1	; 225
 266:	29 f7       	brne	.-54     	; 0x232 <ignorePacket>

00000268 <handleSetupOrOut>:
 268:	4f 70       	andi	r20, 0x0F	; 15
 26a:	09 f0       	breq	.+2      	; 0x26e <storeTokenAndReturn>
 26c:	04 2f       	mov	r16, r20

0000026e <storeTokenAndReturn>:
 26e:	00 93 89 00 	sts	0x0089, r16

00000272 <doReturn>:
 272:	3f 91       	pop	r19
 274:	5f 91       	pop	r21
 276:	4f 91       	pop	r20
 278:	1f 91       	pop	r17
 27a:	0f 91       	pop	r16
 27c:	2f 91       	pop	r18
 27e:	6f 91       	pop	r22
 280:	ca b7       	in	r28, 0x3a	; 58
 282:	c6 fd       	sbrc	r28, 6
 284:	62 cf       	rjmp	.-316    	; 0x14a <waitForJ>

00000286 <sofError>:
 286:	df 91       	pop	r29
 288:	cf 91       	pop	r28
 28a:	cf bf       	out	0x3f, r28	; 63
 28c:	cf 91       	pop	r28
 28e:	18 95       	reti

00000290 <handleData>:
 290:	20 91 89 00 	lds	r18, 0x0089
 294:	22 23       	and	r18, r18
 296:	69 f3       	breq	.-38     	; 0x272 <doReturn>
 298:	10 91 87 00 	lds	r17, 0x0087
 29c:	11 23       	and	r17, r17
 29e:	91 f5       	brne	.+100    	; 0x304 <sendNakAndReti>
 2a0:	34 30       	cpi	r19, 0x04	; 4
 2a2:	92 f1       	brmi	.+100    	; 0x308 <sendAckAndReti>
 2a4:	30 93 87 00 	sts	0x0087, r19
 2a8:	20 93 83 00 	sts	0x0083, r18
 2ac:	10 91 84 00 	lds	r17, 0x0084
 2b0:	3b e0       	ldi	r19, 0x0B	; 11
 2b2:	31 1b       	sub	r19, r17
 2b4:	30 93 84 00 	sts	0x0084, r19
 2b8:	27 c0       	rjmp	.+78     	; 0x308 <sendAckAndReti>

000002ba <handleIn>:
 2ba:	00 91 87 00 	lds	r16, 0x0087
 2be:	01 30       	cpi	r16, 0x01	; 1
 2c0:	0c f5       	brge	.+66     	; 0x304 <sendNakAndReti>
 2c2:	0a e5       	ldi	r16, 0x5A	; 90
 2c4:	4f 70       	andi	r20, 0x0F	; 15
 2c6:	49 f4       	brne	.+18     	; 0x2da <handleIn1>
 2c8:	30 91 61 00 	lds	r19, 0x0061
 2cc:	34 fd       	sbrc	r19, 4
 2ce:	1d c0       	rjmp	.+58     	; 0x30a <sendCntAndReti>
 2d0:	00 93 61 00 	sts	0x0061, r16
 2d4:	cb e6       	ldi	r28, 0x6B	; 107
 2d6:	d0 e0       	ldi	r29, 0x00	; 0
 2d8:	1c c0       	rjmp	.+56     	; 0x312 <usbSendAndReti>

000002da <handleIn1>:
 2da:	30 91 76 00 	lds	r19, 0x0076
 2de:	34 fd       	sbrc	r19, 4
 2e0:	14 c0       	rjmp	.+40     	; 0x30a <sendCntAndReti>
 2e2:	00 93 76 00 	sts	0x0076, r16
 2e6:	c7 e7       	ldi	r28, 0x77	; 119
 2e8:	d0 e0       	ldi	r29, 0x00	; 0
 2ea:	13 c0       	rjmp	.+38     	; 0x312 <usbSendAndReti>

000002ec <bitstuffN>:
 2ec:	05 27       	eor	r16, r21
 2ee:	10 e0       	ldi	r17, 0x00	; 0
 2f0:	00 c0       	rjmp	.+0      	; 0x2f2 <bitstuffN+0x6>
 2f2:	00 00       	nop
 2f4:	02 bb       	out	0x12, r16	; 18
 2f6:	1a c0       	rjmp	.+52     	; 0x32c <didStuffN>

000002f8 <bitstuff6>:
 2f8:	05 27       	eor	r16, r21
 2fa:	10 e0       	ldi	r17, 0x00	; 0
 2fc:	22 1f       	adc	r18, r18
 2fe:	1d c0       	rjmp	.+58     	; 0x33a <didStuff6>

00000300 <bitstuff7>:
 300:	10 e0       	ldi	r17, 0x00	; 0
 302:	21 c0       	rjmp	.+66     	; 0x346 <didStuff7>

00000304 <sendNakAndReti>:
 304:	4a e5       	ldi	r20, 0x5A	; 90
 306:	02 c0       	rjmp	.+4      	; 0x30c <sendX3AndReti>

00000308 <sendAckAndReti>:
 308:	32 ed       	ldi	r19, 0xD2	; 210

0000030a <sendCntAndReti>:
 30a:	43 2f       	mov	r20, r19

0000030c <sendX3AndReti>:
 30c:	c4 e1       	ldi	r28, 0x14	; 20
 30e:	d0 e0       	ldi	r29, 0x00	; 0
 310:	32 e0       	ldi	r19, 0x02	; 2

00000312 <usbSendAndReti>:
 312:	11 b3       	in	r17, 0x11	; 17
 314:	14 61       	ori	r17, 0x14	; 20
 316:	94 9a       	sbi	0x12, 4	; 18
 318:	02 b3       	in	r16, 0x12	; 18
 31a:	11 bb       	out	0x11, r17	; 17
 31c:	54 e1       	ldi	r21, 0x14	; 20
 31e:	20 e8       	ldi	r18, 0x80	; 128

00000320 <txByteLoop>:
 320:	65 e3       	ldi	r22, 0x35	; 53

00000322 <txBitLoop>:
 322:	20 ff       	sbrs	r18, 0
 324:	05 27       	eor	r16, r21
 326:	02 bb       	out	0x12, r16	; 18
 328:	27 95       	ror	r18
 32a:	17 95       	ror	r17

0000032c <didStuffN>:
 32c:	1c 3f       	cpi	r17, 0xFC	; 252
 32e:	f0 f6       	brcc	.-68     	; 0x2ec <bitstuffN>
 330:	66 95       	lsr	r22
 332:	b8 f7       	brcc	.-18     	; 0x322 <txBitLoop>
 334:	b1 f7       	brne	.-20     	; 0x322 <txBitLoop>
 336:	20 ff       	sbrs	r18, 0
 338:	05 27       	eor	r16, r21

0000033a <didStuff6>:
 33a:	02 bb       	out	0x12, r16	; 18
 33c:	27 95       	ror	r18
 33e:	17 95       	ror	r17
 340:	1c 3f       	cpi	r17, 0xFC	; 252
 342:	d0 f6       	brcc	.-76     	; 0x2f8 <bitstuff6>
 344:	27 95       	ror	r18

00000346 <didStuff7>:
 346:	17 95       	ror	r17
 348:	17 ff       	sbrs	r17, 7
 34a:	05 27       	eor	r16, r21
 34c:	00 00       	nop
 34e:	1c 3f       	cpi	r17, 0xFC	; 252
 350:	02 bb       	out	0x12, r16	; 18
 352:	b0 f6       	brcc	.-84     	; 0x300 <bitstuff7>
 354:	29 91       	ld	r18, Y+
 356:	3a 95       	dec	r19
 358:	19 f7       	brne	.-58     	; 0x320 <txByteLoop>
 35a:	0b 7e       	andi	r16, 0xEB	; 235
 35c:	10 91 88 00 	lds	r17, 0x0088
 360:	11 0f       	add	r17, r17
 362:	c6 51       	subi	r28, 0x16	; 22
 364:	d0 40       	sbci	r29, 0x00	; 0
 366:	02 bb       	out	0x12, r16	; 18
 368:	11 f0       	breq	.+4      	; 0x36e <skipAddrAssign>
 36a:	10 93 82 00 	sts	0x0082, r17

0000036e <skipAddrAssign>:
 36e:	10 e4       	ldi	r17, 0x40	; 64
 370:	1a bf       	out	0x3a, r17	; 58
 372:	00 61       	ori	r16, 0x10	; 16
 374:	11 b3       	in	r17, 0x11	; 17
 376:	1b 7e       	andi	r17, 0xEB	; 235
 378:	40 2f       	mov	r20, r16
 37a:	4b 7e       	andi	r20, 0xEB	; 235
 37c:	54 e0       	ldi	r21, 0x04	; 4

0000037e <se0Delay>:
 37e:	5a 95       	dec	r21
 380:	f1 f7       	brne	.-4      	; 0x37e <se0Delay>
 382:	02 bb       	out	0x12, r16	; 18
 384:	11 bb       	out	0x11, r17	; 17
 386:	42 bb       	out	0x12, r20	; 18
 388:	74 cf       	rjmp	.-280    	; 0x272 <doReturn>

0000038a <usbSetInterrupt>:
 38a:	cf 93       	push	r28
 38c:	c6 2f       	mov	r28, r22
 38e:	20 91 76 00 	lds	r18, 0x0076
 392:	2e 31       	cpi	r18, 0x1E	; 30
 394:	f1 f0       	breq	.+60     	; 0x3d2 <usbSetInterrupt+0x48>
 396:	20 91 76 00 	lds	r18, 0x0076
 39a:	24 ff       	sbrs	r18, 4
 39c:	07 c0       	rjmp	.+14     	; 0x3ac <usbSetInterrupt+0x22>
 39e:	20 91 77 00 	lds	r18, 0x0077
 3a2:	38 e8       	ldi	r19, 0x88	; 136
 3a4:	23 27       	eor	r18, r19
 3a6:	20 93 77 00 	sts	0x0077, r18
 3aa:	03 c0       	rjmp	.+6      	; 0x3b2 <usbSetInterrupt+0x28>
 3ac:	2a e5       	ldi	r18, 0x5A	; 90
 3ae:	20 93 76 00 	sts	0x0076, r18
 3b2:	dc 01       	movw	r26, r24
 3b4:	e8 e7       	ldi	r30, 0x78	; 120
 3b6:	f0 e0       	ldi	r31, 0x00	; 0
 3b8:	8c 2f       	mov	r24, r28
 3ba:	8e 0f       	add	r24, r30
 3bc:	9d 91       	ld	r25, X+
 3be:	91 93       	st	Z+, r25
 3c0:	8e 13       	cpse	r24, r30
 3c2:	fc cf       	rjmp	.-8      	; 0x3bc <usbSetInterrupt+0x32>
 3c4:	6c 2f       	mov	r22, r28
 3c6:	88 e7       	ldi	r24, 0x78	; 120
 3c8:	90 e0       	ldi	r25, 0x00	; 0
 3ca:	b7 de       	rcall	.-658    	; 0x13a <usbCrc16Append>
 3cc:	cc 5f       	subi	r28, 0xFC	; 252
 3ce:	c0 93 76 00 	sts	0x0076, r28
 3d2:	cf 91       	pop	r28
 3d4:	08 95       	ret

000003d6 <usbPoll>:
 3d6:	cf 93       	push	r28
 3d8:	df 93       	push	r29
 3da:	60 91 87 00 	lds	r22, 0x0087
 3de:	63 50       	subi	r22, 0x03	; 3
 3e0:	67 fd       	sbrc	r22, 7
 3e2:	ca c0       	rjmp	.+404    	; 0x578 <__stack+0x119>
 3e4:	80 91 84 00 	lds	r24, 0x0084
 3e8:	cc e0       	ldi	r28, 0x0C	; 12
 3ea:	d0 e0       	ldi	r29, 0x00	; 0
 3ec:	c8 1b       	sub	r28, r24
 3ee:	d1 09       	sbc	r29, r1
 3f0:	c5 57       	subi	r28, 0x75	; 117
 3f2:	df 4f       	sbci	r29, 0xFF	; 255
 3f4:	80 91 83 00 	lds	r24, 0x0083
 3f8:	80 31       	cpi	r24, 0x10	; 16
 3fa:	18 f4       	brcc	.+6      	; 0x402 <usbPoll+0x2c>
 3fc:	ce 01       	movw	r24, r28
 3fe:	96 d1       	rcall	.+812    	; 0x72c <usbFunctionWriteOut>
 400:	b9 c0       	rjmp	.+370    	; 0x574 <__stack+0x115>
 402:	8d 32       	cpi	r24, 0x2D	; 45
 404:	09 f0       	breq	.+2      	; 0x408 <usbPoll+0x32>
 406:	a7 c0       	rjmp	.+334    	; 0x556 <__stack+0xf7>
 408:	68 30       	cpi	r22, 0x08	; 8
 40a:	09 f0       	breq	.+2      	; 0x40e <usbPoll+0x38>
 40c:	b3 c0       	rjmp	.+358    	; 0x574 <__stack+0x115>
 40e:	83 ec       	ldi	r24, 0xC3	; 195
 410:	80 93 6b 00 	sts	0x006B, r24
 414:	8a e5       	ldi	r24, 0x5A	; 90
 416:	80 93 61 00 	sts	0x0061, r24
 41a:	10 92 66 00 	sts	0x0066, r1
 41e:	38 81       	ld	r19, Y
 420:	83 2f       	mov	r24, r19
 422:	80 76       	andi	r24, 0x60	; 96
 424:	19 f0       	breq	.+6      	; 0x42c <usbPoll+0x56>
 426:	ce 01       	movw	r24, r28
 428:	68 d1       	rcall	.+720    	; 0x6fa <usbFunctionSetup>
 42a:	82 c0       	rjmp	.+260    	; 0x530 <__stack+0xd1>
 42c:	9a 81       	ldd	r25, Y+2	; 0x02
 42e:	2c 81       	ldd	r18, Y+4	; 0x04
 430:	10 92 74 00 	sts	0x0074, r1
 434:	89 81       	ldd	r24, Y+1	; 0x01
 436:	81 11       	cpse	r24, r1
 438:	13 c0       	rjmp	.+38     	; 0x460 <__stack+0x1>
 43a:	3f 71       	andi	r19, 0x1F	; 31
 43c:	32 30       	cpi	r19, 0x02	; 2
 43e:	51 f4       	brne	.+20     	; 0x454 <usbPoll+0x7e>
 440:	21 38       	cpi	r18, 0x81	; 129
 442:	41 f4       	brne	.+16     	; 0x454 <usbPoll+0x7e>
 444:	90 91 76 00 	lds	r25, 0x0076
 448:	81 e0       	ldi	r24, 0x01	; 1
 44a:	9e 31       	cpi	r25, 0x1E	; 30
 44c:	09 f0       	breq	.+2      	; 0x450 <usbPoll+0x7a>
 44e:	80 e0       	ldi	r24, 0x00	; 0
 450:	80 93 74 00 	sts	0x0074, r24
 454:	10 92 75 00 	sts	0x0075, r1
 458:	24 e7       	ldi	r18, 0x74	; 116
 45a:	30 e0       	ldi	r19, 0x00	; 0
 45c:	82 e0       	ldi	r24, 0x02	; 2
 45e:	64 c0       	rjmp	.+200    	; 0x528 <__stack+0xc9>
 460:	38 2f       	mov	r19, r24
 462:	3d 7f       	andi	r19, 0xFD	; 253
 464:	31 30       	cpi	r19, 0x01	; 1
 466:	81 f4       	brne	.+32     	; 0x488 <__stack+0x29>
 468:	91 11       	cpse	r25, r1
 46a:	5b c0       	rjmp	.+182    	; 0x522 <__stack+0xc3>
 46c:	21 38       	cpi	r18, 0x81	; 129
 46e:	09 f0       	breq	.+2      	; 0x472 <__stack+0x13>
 470:	58 c0       	rjmp	.+176    	; 0x522 <__stack+0xc3>
 472:	81 30       	cpi	r24, 0x01	; 1
 474:	11 f4       	brne	.+4      	; 0x47a <__stack+0x1b>
 476:	8a e5       	ldi	r24, 0x5A	; 90
 478:	01 c0       	rjmp	.+2      	; 0x47c <__stack+0x1d>
 47a:	8e e1       	ldi	r24, 0x1E	; 30
 47c:	80 93 76 00 	sts	0x0076, r24
 480:	8b e4       	ldi	r24, 0x4B	; 75
 482:	80 93 77 00 	sts	0x0077, r24
 486:	4d c0       	rjmp	.+154    	; 0x522 <__stack+0xc3>
 488:	85 30       	cpi	r24, 0x05	; 5
 48a:	19 f4       	brne	.+6      	; 0x492 <__stack+0x33>
 48c:	90 93 88 00 	sts	0x0088, r25
 490:	48 c0       	rjmp	.+144    	; 0x522 <__stack+0xc3>
 492:	86 30       	cpi	r24, 0x06	; 6
 494:	69 f5       	brne	.+90     	; 0x4f0 <__stack+0x91>
 496:	8b 81       	ldd	r24, Y+3	; 0x03
 498:	81 30       	cpi	r24, 0x01	; 1
 49a:	11 f0       	breq	.+4      	; 0x4a0 <__stack+0x41>
 49c:	82 30       	cpi	r24, 0x02	; 2
 49e:	19 f4       	brne	.+6      	; 0x4a6 <__stack+0x47>
 4a0:	ce 01       	movw	r24, r28
 4a2:	17 d1       	rcall	.+558    	; 0x6d2 <usbFunctionDescriptor>
 4a4:	21 c0       	rjmp	.+66     	; 0x4e8 <__stack+0x89>
 4a6:	83 30       	cpi	r24, 0x03	; 3
 4a8:	f1 f4       	brne	.+60     	; 0x4e6 <__stack+0x87>
 4aa:	91 11       	cpse	r25, r1
 4ac:	08 c0       	rjmp	.+16     	; 0x4be <__stack+0x5f>
 4ae:	8c e5       	ldi	r24, 0x5C	; 92
 4b0:	90 e0       	ldi	r25, 0x00	; 0
 4b2:	90 93 86 00 	sts	0x0086, r25
 4b6:	80 93 85 00 	sts	0x0085, r24
 4ba:	84 e0       	ldi	r24, 0x04	; 4
 4bc:	15 c0       	rjmp	.+42     	; 0x4e8 <__stack+0x89>
 4be:	91 30       	cpi	r25, 0x01	; 1
 4c0:	41 f4       	brne	.+16     	; 0x4d2 <__stack+0x73>
 4c2:	88 e3       	ldi	r24, 0x38	; 56
 4c4:	90 e0       	ldi	r25, 0x00	; 0
 4c6:	90 93 86 00 	sts	0x0086, r25
 4ca:	80 93 85 00 	sts	0x0085, r24
 4ce:	84 e2       	ldi	r24, 0x24	; 36
 4d0:	0b c0       	rjmp	.+22     	; 0x4e8 <__stack+0x89>
 4d2:	92 30       	cpi	r25, 0x02	; 2
 4d4:	41 f4       	brne	.+16     	; 0x4e6 <__stack+0x87>
 4d6:	86 e2       	ldi	r24, 0x26	; 38
 4d8:	90 e0       	ldi	r25, 0x00	; 0
 4da:	90 93 86 00 	sts	0x0086, r25
 4de:	80 93 85 00 	sts	0x0085, r24
 4e2:	82 e1       	ldi	r24, 0x12	; 18
 4e4:	01 c0       	rjmp	.+2      	; 0x4e8 <__stack+0x89>
 4e6:	80 e0       	ldi	r24, 0x00	; 0
 4e8:	90 e4       	ldi	r25, 0x40	; 64
 4ea:	90 93 66 00 	sts	0x0066, r25
 4ee:	20 c0       	rjmp	.+64     	; 0x530 <__stack+0xd1>
 4f0:	88 30       	cpi	r24, 0x08	; 8
 4f2:	81 f0       	breq	.+32     	; 0x514 <__stack+0xb5>
 4f4:	89 30       	cpi	r24, 0x09	; 9
 4f6:	19 f4       	brne	.+6      	; 0x4fe <__stack+0x9f>
 4f8:	90 93 8a 00 	sts	0x008A, r25
 4fc:	07 c0       	rjmp	.+14     	; 0x50c <__stack+0xad>
 4fe:	8a 30       	cpi	r24, 0x0A	; 10
 500:	61 f0       	breq	.+24     	; 0x51a <__stack+0xbb>
 502:	8b 30       	cpi	r24, 0x0B	; 11
 504:	71 f4       	brne	.+28     	; 0x522 <__stack+0xc3>
 506:	8b e4       	ldi	r24, 0x4B	; 75
 508:	80 93 77 00 	sts	0x0077, r24
 50c:	8a e5       	ldi	r24, 0x5A	; 90
 50e:	80 93 76 00 	sts	0x0076, r24
 512:	07 c0       	rjmp	.+14     	; 0x522 <__stack+0xc3>
 514:	2a e8       	ldi	r18, 0x8A	; 138
 516:	30 e0       	ldi	r19, 0x00	; 0
 518:	02 c0       	rjmp	.+4      	; 0x51e <__stack+0xbf>
 51a:	24 e7       	ldi	r18, 0x74	; 116
 51c:	30 e0       	ldi	r19, 0x00	; 0
 51e:	81 e0       	ldi	r24, 0x01	; 1
 520:	03 c0       	rjmp	.+6      	; 0x528 <__stack+0xc9>
 522:	24 e7       	ldi	r18, 0x74	; 116
 524:	30 e0       	ldi	r19, 0x00	; 0
 526:	80 e0       	ldi	r24, 0x00	; 0
 528:	30 93 86 00 	sts	0x0086, r19
 52c:	20 93 85 00 	sts	0x0085, r18
 530:	8f 3f       	cpi	r24, 0xFF	; 255
 532:	39 f4       	brne	.+14     	; 0x542 <__stack+0xe3>
 534:	98 81       	ld	r25, Y
 536:	97 fd       	sbrc	r25, 7
 538:	8e 81       	ldd	r24, Y+6	; 0x06
 53a:	90 e8       	ldi	r25, 0x80	; 128
 53c:	90 93 66 00 	sts	0x0066, r25
 540:	07 c0       	rjmp	.+14     	; 0x550 <__stack+0xf1>
 542:	9f 81       	ldd	r25, Y+7	; 0x07
 544:	91 11       	cpse	r25, r1
 546:	04 c0       	rjmp	.+8      	; 0x550 <__stack+0xf1>
 548:	9e 81       	ldd	r25, Y+6	; 0x06
 54a:	98 17       	cp	r25, r24
 54c:	08 f4       	brcc	.+2      	; 0x550 <__stack+0xf1>
 54e:	89 2f       	mov	r24, r25
 550:	80 93 60 00 	sts	0x0060, r24
 554:	0f c0       	rjmp	.+30     	; 0x574 <__stack+0x115>
 556:	80 91 66 00 	lds	r24, 0x0066
 55a:	87 ff       	sbrs	r24, 7
 55c:	0b c0       	rjmp	.+22     	; 0x574 <__stack+0x115>
 55e:	ce 01       	movw	r24, r28
 560:	e3 d0       	rcall	.+454    	; 0x728 <usbFunctionWrite>
 562:	8f 3f       	cpi	r24, 0xFF	; 255
 564:	21 f4       	brne	.+8      	; 0x56e <__stack+0x10f>
 566:	8e e1       	ldi	r24, 0x1E	; 30
 568:	80 93 61 00 	sts	0x0061, r24
 56c:	03 c0       	rjmp	.+6      	; 0x574 <__stack+0x115>
 56e:	81 11       	cpse	r24, r1
 570:	10 92 60 00 	sts	0x0060, r1
 574:	10 92 87 00 	sts	0x0087, r1
 578:	80 91 61 00 	lds	r24, 0x0061
 57c:	84 ff       	sbrs	r24, 4
 57e:	56 c0       	rjmp	.+172    	; 0x62c <__stack+0x1cd>
 580:	80 91 60 00 	lds	r24, 0x0060
 584:	8f 3f       	cpi	r24, 0xFF	; 255
 586:	09 f4       	brne	.+2      	; 0x58a <__stack+0x12b>
 588:	51 c0       	rjmp	.+162    	; 0x62c <__stack+0x1cd>
 58a:	c8 2f       	mov	r28, r24
 58c:	89 30       	cpi	r24, 0x09	; 9
 58e:	08 f0       	brcs	.+2      	; 0x592 <__stack+0x133>
 590:	c8 e0       	ldi	r28, 0x08	; 8
 592:	8c 1b       	sub	r24, r28
 594:	80 93 60 00 	sts	0x0060, r24
 598:	80 91 6b 00 	lds	r24, 0x006B
 59c:	98 e8       	ldi	r25, 0x88	; 136
 59e:	89 27       	eor	r24, r25
 5a0:	80 93 6b 00 	sts	0x006B, r24
 5a4:	cc 23       	and	r28, r28
 5a6:	89 f1       	breq	.+98     	; 0x60a <__stack+0x1ab>
 5a8:	80 91 66 00 	lds	r24, 0x0066
 5ac:	87 ff       	sbrs	r24, 7
 5ae:	08 c0       	rjmp	.+16     	; 0x5c0 <__stack+0x161>
 5b0:	6c 2f       	mov	r22, r28
 5b2:	8c e6       	ldi	r24, 0x6C	; 108
 5b4:	90 e0       	ldi	r25, 0x00	; 0
 5b6:	ae d0       	rcall	.+348    	; 0x714 <usbFunctionRead>
 5b8:	c8 2f       	mov	r28, r24
 5ba:	89 30       	cpi	r24, 0x09	; 9
 5bc:	88 f5       	brcc	.+98     	; 0x620 <__stack+0x1c1>
 5be:	25 c0       	rjmp	.+74     	; 0x60a <__stack+0x1ab>
 5c0:	40 91 85 00 	lds	r20, 0x0085
 5c4:	50 91 86 00 	lds	r21, 0x0086
 5c8:	86 ff       	sbrs	r24, 6
 5ca:	0b c0       	rjmp	.+22     	; 0x5e2 <__stack+0x183>
 5cc:	ac e6       	ldi	r26, 0x6C	; 108
 5ce:	b0 e0       	ldi	r27, 0x00	; 0
 5d0:	fa 01       	movw	r30, r20
 5d2:	8c 2f       	mov	r24, r28
 5d4:	8a 0f       	add	r24, r26
 5d6:	94 91       	lpm	r25, Z
 5d8:	9d 93       	st	X+, r25
 5da:	31 96       	adiw	r30, 0x01	; 1
 5dc:	8a 13       	cpse	r24, r26
 5de:	fb cf       	rjmp	.-10     	; 0x5d6 <__stack+0x177>
 5e0:	09 c0       	rjmp	.+18     	; 0x5f4 <__stack+0x195>
 5e2:	da 01       	movw	r26, r20
 5e4:	ec e6       	ldi	r30, 0x6C	; 108
 5e6:	f0 e0       	ldi	r31, 0x00	; 0
 5e8:	8c 2f       	mov	r24, r28
 5ea:	8e 0f       	add	r24, r30
 5ec:	9d 91       	ld	r25, X+
 5ee:	91 93       	st	Z+, r25
 5f0:	8e 13       	cpse	r24, r30
 5f2:	fc cf       	rjmp	.-8      	; 0x5ec <__stack+0x18d>
 5f4:	2f ef       	ldi	r18, 0xFF	; 255
 5f6:	2c 0f       	add	r18, r28
 5f8:	30 e0       	ldi	r19, 0x00	; 0
 5fa:	2f 5f       	subi	r18, 0xFF	; 255
 5fc:	3f 4f       	sbci	r19, 0xFF	; 255
 5fe:	24 0f       	add	r18, r20
 600:	35 1f       	adc	r19, r21
 602:	30 93 86 00 	sts	0x0086, r19
 606:	20 93 85 00 	sts	0x0085, r18
 60a:	6c 2f       	mov	r22, r28
 60c:	8c e6       	ldi	r24, 0x6C	; 108
 60e:	90 e0       	ldi	r25, 0x00	; 0
 610:	94 dd       	rcall	.-1240   	; 0x13a <usbCrc16Append>
 612:	cc 5f       	subi	r28, 0xFC	; 252
 614:	cc 30       	cpi	r28, 0x0C	; 12
 616:	41 f0       	breq	.+16     	; 0x628 <__stack+0x1c9>
 618:	8f ef       	ldi	r24, 0xFF	; 255
 61a:	80 93 60 00 	sts	0x0060, r24
 61e:	04 c0       	rjmp	.+8      	; 0x628 <__stack+0x1c9>
 620:	8f ef       	ldi	r24, 0xFF	; 255
 622:	80 93 60 00 	sts	0x0060, r24
 626:	ce e1       	ldi	r28, 0x1E	; 30
 628:	c0 93 61 00 	sts	0x0061, r28
 62c:	84 e1       	ldi	r24, 0x14	; 20
 62e:	90 b3       	in	r25, 0x10	; 16
 630:	94 71       	andi	r25, 0x14	; 20
 632:	49 f4       	brne	.+18     	; 0x646 <__stack+0x1e7>
 634:	81 50       	subi	r24, 0x01	; 1
 636:	d9 f7       	brne	.-10     	; 0x62e <__stack+0x1cf>
 638:	10 92 88 00 	sts	0x0088, r1
 63c:	10 92 82 00 	sts	0x0082, r1
 640:	8a e5       	ldi	r24, 0x5A	; 90
 642:	80 93 76 00 	sts	0x0076, r24
 646:	df 91       	pop	r29
 648:	cf 91       	pop	r28
 64a:	08 95       	ret

0000064c <usbInit>:
 64c:	85 b7       	in	r24, 0x35	; 53
 64e:	83 60       	ori	r24, 0x03	; 3
 650:	85 bf       	out	0x35, r24	; 53
 652:	8b b7       	in	r24, 0x3b	; 59
 654:	80 64       	ori	r24, 0x40	; 64
 656:	8b bf       	out	0x3b, r24	; 59
 658:	8b e4       	ldi	r24, 0x4B	; 75
 65a:	80 93 77 00 	sts	0x0077, r24
 65e:	8a e5       	ldi	r24, 0x5A	; 90
 660:	80 93 76 00 	sts	0x0076, r24
 664:	08 95       	ret

00000666 <row_on>:
 666:	81 30       	cpi	r24, 0x01	; 1
 668:	41 f0       	breq	.+16     	; 0x67a <row_on+0x14>
 66a:	28 f0       	brcs	.+10     	; 0x676 <row_on+0x10>
 66c:	82 30       	cpi	r24, 0x02	; 2
 66e:	39 f0       	breq	.+14     	; 0x67e <row_on+0x18>
 670:	83 30       	cpi	r24, 0x03	; 3
 672:	39 f0       	breq	.+14     	; 0x682 <row_on+0x1c>
 674:	08 95       	ret
 676:	c4 9a       	sbi	0x18, 4	; 24
 678:	08 95       	ret
 67a:	c2 9a       	sbi	0x18, 2	; 24
 67c:	08 95       	ret
 67e:	96 9a       	sbi	0x12, 6	; 18
 680:	08 95       	ret
 682:	c0 9a       	sbi	0x18, 0	; 24
 684:	08 95       	ret

00000686 <row_off>:
 686:	81 30       	cpi	r24, 0x01	; 1
 688:	41 f0       	breq	.+16     	; 0x69a <row_off+0x14>
 68a:	28 f0       	brcs	.+10     	; 0x696 <row_off+0x10>
 68c:	82 30       	cpi	r24, 0x02	; 2
 68e:	39 f0       	breq	.+14     	; 0x69e <row_off+0x18>
 690:	83 30       	cpi	r24, 0x03	; 3
 692:	39 f0       	breq	.+14     	; 0x6a2 <row_off+0x1c>
 694:	08 95       	ret
 696:	c4 98       	cbi	0x18, 4	; 24
 698:	08 95       	ret
 69a:	c2 98       	cbi	0x18, 2	; 24
 69c:	08 95       	ret
 69e:	96 98       	cbi	0x12, 6	; 18
 6a0:	08 95       	ret
 6a2:	c0 98       	cbi	0x18, 0	; 24
 6a4:	08 95       	ret

000006a6 <row_scan>:
 6a6:	cf 93       	push	r28
 6a8:	df 93       	push	r29
 6aa:	d8 2f       	mov	r29, r24
 6ac:	dc df       	rcall	.-72     	; 0x666 <row_on>
 6ae:	c6 b3       	in	r28, 0x16	; 22
 6b0:	c5 fb       	bst	r28, 5
 6b2:	cc 27       	eor	r28, r28
 6b4:	c0 f9       	bld	r28, 0
 6b6:	9a 99       	sbic	0x13, 2	; 19
 6b8:	c2 60       	ori	r28, 0x02	; 2
 6ba:	9c 99       	sbic	0x13, 4	; 19
 6bc:	c4 60       	ori	r28, 0x04	; 4
 6be:	83 99       	sbic	0x10, 3	; 16
 6c0:	c8 60       	ori	r28, 0x08	; 8
 6c2:	99 99       	sbic	0x13, 1	; 19
 6c4:	c0 61       	ori	r28, 0x10	; 16
 6c6:	8d 2f       	mov	r24, r29
 6c8:	de df       	rcall	.-68     	; 0x686 <row_off>
 6ca:	8c 2f       	mov	r24, r28
 6cc:	df 91       	pop	r29
 6ce:	cf 91       	pop	r28
 6d0:	08 95       	ret

000006d2 <usbFunctionDescriptor>:
 6d2:	fc 01       	movw	r30, r24
 6d4:	83 81       	ldd	r24, Z+3	; 0x03
 6d6:	81 30       	cpi	r24, 0x01	; 1
 6d8:	41 f4       	brne	.+16     	; 0x6ea <usbFunctionDescriptor+0x18>
 6da:	85 ec       	ldi	r24, 0xC5	; 197
 6dc:	90 e0       	ldi	r25, 0x00	; 0
 6de:	90 93 86 00 	sts	0x0086, r25
 6e2:	80 93 85 00 	sts	0x0085, r24
 6e6:	82 e1       	ldi	r24, 0x12	; 18
 6e8:	08 95       	ret
 6ea:	80 e6       	ldi	r24, 0x60	; 96
 6ec:	90 e0       	ldi	r25, 0x00	; 0
 6ee:	90 93 86 00 	sts	0x0086, r25
 6f2:	80 93 85 00 	sts	0x0085, r24
 6f6:	85 e6       	ldi	r24, 0x65	; 101
 6f8:	08 95       	ret

000006fa <usbFunctionSetup>:
 6fa:	fc 01       	movw	r30, r24
 6fc:	80 81       	ld	r24, Z
 6fe:	98 2f       	mov	r25, r24
 700:	90 76       	andi	r25, 0x60	; 96
 702:	90 32       	cpi	r25, 0x20	; 32
 704:	29 f4       	brne	.+10     	; 0x710 <usbFunctionSetup+0x16>
 706:	87 fd       	sbrc	r24, 7
 708:	03 c0       	rjmp	.+6      	; 0x710 <usbFunctionSetup+0x16>
 70a:	81 e0       	ldi	r24, 0x01	; 1
 70c:	80 93 67 00 	sts	0x0067, r24
 710:	8f ef       	ldi	r24, 0xFF	; 255
 712:	08 95       	ret

00000714 <usbFunctionRead>:
 714:	fc 01       	movw	r30, r24
 716:	10 82       	st	Z, r1
 718:	11 82       	std	Z+1, r1	; 0x01
 71a:	12 82       	std	Z+2, r1	; 0x02
 71c:	13 82       	std	Z+3, r1	; 0x03
 71e:	14 82       	std	Z+4, r1	; 0x04
 720:	15 82       	std	Z+5, r1	; 0x05
 722:	16 82       	std	Z+6, r1	; 0x06
 724:	87 e0       	ldi	r24, 0x07	; 7
 726:	08 95       	ret

00000728 <usbFunctionWrite>:
 728:	81 e0       	ldi	r24, 0x01	; 1
 72a:	08 95       	ret

0000072c <usbFunctionWriteOut>:
 72c:	08 95       	ret

0000072e <main>:
 72e:	2e e0       	ldi	r18, 0x0E	; 14
 730:	88 e1       	ldi	r24, 0x18	; 24
 732:	90 e0       	ldi	r25, 0x00	; 0
 734:	0f b6       	in	r0, 0x3f	; 63
 736:	f8 94       	cli
 738:	a8 95       	wdr
 73a:	81 bd       	out	0x21, r24	; 33
 73c:	0f be       	out	0x3f, r0	; 63
 73e:	21 bd       	out	0x21, r18	; 33
 740:	8b ee       	ldi	r24, 0xEB	; 235
 742:	82 bb       	out	0x12, r24	; 18
 744:	84 e1       	ldi	r24, 0x14	; 20
 746:	81 bb       	out	0x11, r24	; 17
 748:	11 ba       	out	0x11, r1	; 17
 74a:	87 b3       	in	r24, 0x17	; 23
 74c:	85 61       	ori	r24, 0x15	; 21
 74e:	87 bb       	out	0x17, r24	; 23
 750:	8e 9a       	sbi	0x11, 6	; 17
 752:	bd 98       	cbi	0x17, 5	; 23
 754:	84 b3       	in	r24, 0x14	; 20
 756:	8b 7e       	andi	r24, 0xEB	; 235
 758:	84 bb       	out	0x14, r24	; 20
 75a:	81 b3       	in	r24, 0x11	; 17
 75c:	85 7f       	andi	r24, 0xF5	; 245
 75e:	81 bb       	out	0x11, r24	; 17
 760:	75 df       	rcall	.-278    	; 0x64c <usbInit>
 762:	10 92 67 00 	sts	0x0067, r1
 766:	78 94       	sei
 768:	8f e7       	ldi	r24, 0x7F	; 127
 76a:	e8 2e       	mov	r14, r24
 76c:	a8 95       	wdr
 76e:	33 de       	rcall	.-922    	; 0x3d6 <usbPoll>
 770:	09 e6       	ldi	r16, 0x69	; 105
 772:	10 e0       	ldi	r17, 0x00	; 0
 774:	f1 2c       	mov	r15, r1
 776:	8f 2d       	mov	r24, r15
 778:	96 df       	rcall	.-212    	; 0x6a6 <row_scan>
 77a:	80 93 68 00 	sts	0x0068, r24
 77e:	f8 01       	movw	r30, r16
 780:	90 81       	ld	r25, Z
 782:	89 17       	cp	r24, r25
 784:	e1 f1       	breq	.+120    	; 0x7fe <main+0xd0>
 786:	df 2c       	mov	r13, r15
 788:	dd 0c       	add	r13, r13
 78a:	c0 e0       	ldi	r28, 0x00	; 0
 78c:	d0 e0       	ldi	r29, 0x00	; 0
 78e:	20 91 68 00 	lds	r18, 0x0068
 792:	30 e0       	ldi	r19, 0x00	; 0
 794:	0c 2e       	mov	r0, r28
 796:	02 c0       	rjmp	.+4      	; 0x79c <main+0x6e>
 798:	35 95       	asr	r19
 79a:	27 95       	ror	r18
 79c:	0a 94       	dec	r0
 79e:	e2 f7       	brpl	.-8      	; 0x798 <main+0x6a>
 7a0:	82 2f       	mov	r24, r18
 7a2:	81 70       	andi	r24, 0x01	; 1
 7a4:	f8 01       	movw	r30, r16
 7a6:	20 81       	ld	r18, Z
 7a8:	30 e0       	ldi	r19, 0x00	; 0
 7aa:	0c 2e       	mov	r0, r28
 7ac:	02 c0       	rjmp	.+4      	; 0x7b2 <main+0x84>
 7ae:	35 95       	asr	r19
 7b0:	27 95       	ror	r18
 7b2:	0a 94       	dec	r0
 7b4:	e2 f7       	brpl	.-8      	; 0x7ae <main+0x80>
 7b6:	21 70       	andi	r18, 0x01	; 1
 7b8:	82 17       	cp	r24, r18
 7ba:	c9 f0       	breq	.+50     	; 0x7ee <main+0xc0>
 7bc:	88 23       	and	r24, r24
 7be:	19 f0       	breq	.+6      	; 0x7c6 <main+0x98>
 7c0:	e0 92 65 00 	sts	0x0065, r14
 7c4:	02 c0       	rjmp	.+4      	; 0x7ca <main+0x9c>
 7c6:	10 92 65 00 	sts	0x0065, r1
 7ca:	8c 2f       	mov	r24, r28
 7cc:	8d 0d       	add	r24, r13
 7ce:	80 93 64 00 	sts	0x0064, r24
 7d2:	80 91 76 00 	lds	r24, 0x0076
 7d6:	84 ff       	sbrs	r24, 4
 7d8:	04 c0       	rjmp	.+8      	; 0x7e2 <main+0xb4>
 7da:	64 e0       	ldi	r22, 0x04	; 4
 7dc:	82 e6       	ldi	r24, 0x62	; 98
 7de:	90 e0       	ldi	r25, 0x00	; 0
 7e0:	d4 dd       	rcall	.-1112   	; 0x38a <usbSetInterrupt>
 7e2:	8f e3       	ldi	r24, 0x3F	; 63
 7e4:	9c e9       	ldi	r25, 0x9C	; 156
 7e6:	01 97       	sbiw	r24, 0x01	; 1
 7e8:	f1 f7       	brne	.-4      	; 0x7e6 <main+0xb8>
 7ea:	00 c0       	rjmp	.+0      	; 0x7ec <main+0xbe>
 7ec:	00 00       	nop
 7ee:	21 96       	adiw	r28, 0x01	; 1
 7f0:	c2 30       	cpi	r28, 0x02	; 2
 7f2:	d1 05       	cpc	r29, r1
 7f4:	61 f6       	brne	.-104    	; 0x78e <main+0x60>
 7f6:	80 91 68 00 	lds	r24, 0x0068
 7fa:	f8 01       	movw	r30, r16
 7fc:	80 83       	st	Z, r24
 7fe:	f3 94       	inc	r15
 800:	0f 5f       	subi	r16, 0xFF	; 255
 802:	1f 4f       	sbci	r17, 0xFF	; 255
 804:	f2 e0       	ldi	r31, 0x02	; 2
 806:	ff 12       	cpse	r15, r31
 808:	b6 cf       	rjmp	.-148    	; 0x776 <main+0x48>
 80a:	b0 cf       	rjmp	.-160    	; 0x76c <main+0x3e>

0000080c <_exit>:
 80c:	f8 94       	cli

0000080e <__stop_program>:
 80e:	ff cf       	rjmp	.-2      	; 0x80e <__stop_program>
