
MIDI.elf:     формат файла elf32-avr

Разделы:
Инд Имя           Размер    VMA       LMA       Файл      Вырав
  0 .data         0000000c  00800100  00000dce  00000e62  2**0
                  CONTENTS, ALLOC, LOAD, DATA
  1 .text         00000dce  00000000  00000000  00000094  2**1
                  CONTENTS, ALLOC, LOAD, READONLY, CODE
  2 .bss          0000000d  0080010c  0080010c  00000e6e  2**0
                  ALLOC
  3 .stab         00000b1c  00000000  00000000  00000e70  2**2
                  CONTENTS, READONLY, DEBUGGING
  4 .stabstr      000001a1  00000000  00000000  0000198c  2**0
                  CONTENTS, READONLY, DEBUGGING
  5 .comment      00000011  00000000  00000000  00001b2d  2**0
                  CONTENTS, READONLY
  6 .debug_aranges 00000668  00000000  00000000  00001b3e  2**0
                  CONTENTS, READONLY, DEBUGGING
  7 .debug_info   0000a819  00000000  00000000  000021a6  2**0
                  CONTENTS, READONLY, DEBUGGING
  8 .debug_abbrev 00002b16  00000000  00000000  0000c9bf  2**0
                  CONTENTS, READONLY, DEBUGGING
  9 .debug_line   00003e15  00000000  00000000  0000f4d5  2**0
                  CONTENTS, READONLY, DEBUGGING
 10 .debug_frame  00000f24  00000000  00000000  000132ec  2**2
                  CONTENTS, READONLY, DEBUGGING
 11 .debug_str    00004018  00000000  00000000  00014210  2**0
                  CONTENTS, READONLY, DEBUGGING
 12 .debug_loc    0000683f  00000000  00000000  00018228  2**0
                  CONTENTS, READONLY, DEBUGGING
 13 .debug_ranges 00000750  00000000  00000000  0001ea67  2**0
                  CONTENTS, READONLY, DEBUGGING

Дизассемблирование раздела .text:

00000000 <__vectors>:
#include "HIDParser.h"

uint8_t USB_ProcessHIDReport(const uint8_t* ReportData,
                             uint16_t ReportSize,
                             HID_ReportInfo_t* const ParserData)
{
   0:	b0 c0       	rjmp	.+352    	; 0x162 <__ctors_end>
   2:	00 00       	nop
   4:	c9 c0       	rjmp	.+402    	; 0x198 <__bad_interrupt>
   6:	00 00       	nop
   8:	c7 c0       	rjmp	.+398    	; 0x198 <__bad_interrupt>
   a:	00 00       	nop
   c:	c5 c0       	rjmp	.+394    	; 0x198 <__bad_interrupt>
   e:	00 00       	nop
  10:	c3 c0       	rjmp	.+390    	; 0x198 <__bad_interrupt>
  12:	00 00       	nop
  14:	c1 c0       	rjmp	.+386    	; 0x198 <__bad_interrupt>
  16:	00 00       	nop
  18:	bf c0       	rjmp	.+382    	; 0x198 <__bad_interrupt>
  1a:	00 00       	nop
  1c:	bd c0       	rjmp	.+378    	; 0x198 <__bad_interrupt>
  1e:	00 00       	nop
  20:	bb c0       	rjmp	.+374    	; 0x198 <__bad_interrupt>
  22:	00 00       	nop
  24:	b9 c0       	rjmp	.+370    	; 0x198 <__bad_interrupt>
  26:	00 00       	nop
  28:	19 c4       	rjmp	.+2098   	; 0x85c <__vector_10>
  2a:	00 00       	nop
  2c:	b5 c0       	rjmp	.+362    	; 0x198 <__bad_interrupt>
  2e:	00 00       	nop
  30:	b3 c0       	rjmp	.+358    	; 0x198 <__bad_interrupt>
  32:	00 00       	nop
  34:	b1 c0       	rjmp	.+354    	; 0x198 <__bad_interrupt>
  36:	00 00       	nop
	HID_StateTable_t      StateTable[HID_STATETABLE_STACK_DEPTH];
	HID_StateTable_t*     CurrStateTable     = &StateTable[0];
	HID_CollectionPath_t* CurrCollectionPath = NULL;
	HID_ReportSizeInfo_t* CurrReportIDInfo   = &ParserData->ReportIDSizes[0];
  38:	af c0       	rjmp	.+350    	; 0x198 <__bad_interrupt>
  3a:	00 00       	nop
  3c:	ad c0       	rjmp	.+346    	; 0x198 <__bad_interrupt>
  3e:	00 00       	nop
  40:	ab c0       	rjmp	.+342    	; 0x198 <__bad_interrupt>
  42:	00 00       	nop
  44:	a9 c0       	rjmp	.+338    	; 0x198 <__bad_interrupt>
	uint16_t              UsageList[HID_USAGE_STACK_DEPTH];
	uint8_t               UsageListSize      = 0;
	HID_MinMax_t          UsageMinMax        = {0, 0};

	memset(ParserData,       0x00, sizeof(HID_ReportInfo_t));
  46:	00 00       	nop
  48:	a7 c0       	rjmp	.+334    	; 0x198 <__bad_interrupt>
  4a:	00 00       	nop
  4c:	a5 c0       	rjmp	.+330    	; 0x198 <__bad_interrupt>
  4e:	00 00       	nop
  50:	a3 c0       	rjmp	.+326    	; 0x198 <__bad_interrupt>
  52:	00 00       	nop
	memset(CurrStateTable,   0x00, sizeof(HID_StateTable_t));
  54:	a1 c0       	rjmp	.+322    	; 0x198 <__bad_interrupt>
  56:	00 00       	nop
  58:	9f c0       	rjmp	.+318    	; 0x198 <__bad_interrupt>
  5a:	00 00       	nop
  5c:	9d c0       	rjmp	.+314    	; 0x198 <__bad_interrupt>
  5e:	00 00       	nop
  60:	9b c0       	rjmp	.+310    	; 0x198 <__bad_interrupt>
	memset(CurrReportIDInfo, 0x00, sizeof(HID_ReportSizeInfo_t));
  62:	00 00       	nop
  64:	99 c0       	rjmp	.+306    	; 0x198 <__bad_interrupt>
  66:	00 00       	nop
  68:	97 c0       	rjmp	.+302    	; 0x198 <__bad_interrupt>
  6a:	00 00       	nop

	ParserData->TotalDeviceReports = 1;
  6c:	95 c0       	rjmp	.+298    	; 0x198 <__bad_interrupt>
  6e:	00 00       	nop
  70:	93 c0       	rjmp	.+294    	; 0x198 <__bad_interrupt>
  72:	00 00       	nop
  74:	91 c0       	rjmp	.+290    	; 0x198 <__bad_interrupt>
  76:	00 00       	nop
  78:	8f c0       	rjmp	.+286    	; 0x198 <__bad_interrupt>
  7a:	00 00       	nop
  7c:	8d c0       	rjmp	.+282    	; 0x198 <__bad_interrupt>
  7e:	00 00       	nop
	HID_StateTable_t*     CurrStateTable     = &StateTable[0];
	HID_CollectionPath_t* CurrCollectionPath = NULL;
	HID_ReportSizeInfo_t* CurrReportIDInfo   = &ParserData->ReportIDSizes[0];
	uint16_t              UsageList[HID_USAGE_STACK_DEPTH];
	uint8_t               UsageListSize      = 0;
	HID_MinMax_t          UsageMinMax        = {0, 0};
  80:	8b c0       	rjmp	.+278    	; 0x198 <__bad_interrupt>
  82:	00 00       	nop
  84:	89 c0       	rjmp	.+274    	; 0x198 <__bad_interrupt>
  86:	00 00       	nop
  88:	87 c0       	rjmp	.+270    	; 0x198 <__bad_interrupt>
  8a:	00 00       	nop
	HID_StateTable_t      StateTable[HID_STATETABLE_STACK_DEPTH];
	HID_StateTable_t*     CurrStateTable     = &StateTable[0];
	HID_CollectionPath_t* CurrCollectionPath = NULL;
	HID_ReportSizeInfo_t* CurrReportIDInfo   = &ParserData->ReportIDSizes[0];
	uint16_t              UsageList[HID_USAGE_STACK_DEPTH];
	uint8_t               UsageListSize      = 0;
  8c:	85 c0       	rjmp	.+266    	; 0x198 <__bad_interrupt>
  8e:	00 00       	nop
  90:	83 c0       	rjmp	.+262    	; 0x198 <__bad_interrupt>
                             uint16_t ReportSize,
                             HID_ReportInfo_t* const ParserData)
{
	HID_StateTable_t      StateTable[HID_STATETABLE_STACK_DEPTH];
	HID_StateTable_t*     CurrStateTable     = &StateTable[0];
	HID_CollectionPath_t* CurrCollectionPath = NULL;
  92:	00 00       	nop
  94:	81 c0       	rjmp	.+258    	; 0x198 <__bad_interrupt>
  96:	00 00       	nop
  98:	7f c0       	rjmp	.+254    	; 0x198 <__bad_interrupt>
uint8_t USB_ProcessHIDReport(const uint8_t* ReportData,
                             uint16_t ReportSize,
                             HID_ReportInfo_t* const ParserData)
{
	HID_StateTable_t      StateTable[HID_STATETABLE_STACK_DEPTH];
	HID_StateTable_t*     CurrStateTable     = &StateTable[0];
  9a:	00 00       	nop

					NewReportItem.BitOffset = CurrReportIDInfo->ReportSizeBits[NewReportItem.ItemType];

					CurrReportIDInfo->ReportSizeBits[NewReportItem.ItemType] += CurrStateTable->Attributes.BitSize;

					ParserData->LargestReportSizeBits = MAX(ParserData->LargestReportSizeBits, CurrReportIDInfo->ReportSizeBits[NewReportItem.ItemType]);
  9c:	7d c0       	rjmp	.+250    	; 0x198 <__bad_interrupt>
  9e:	00 00       	nop
  a0:	7b c0       	rjmp	.+246    	; 0x198 <__bad_interrupt>
  a2:	00 00       	nop
  a4:	79 c0       	rjmp	.+242    	; 0x198 <__bad_interrupt>
  a6:	00 00       	nop
  a8:	77 c0       	rjmp	.+238    	; 0x198 <__bad_interrupt>

					CurrCollectionPath = &ParserData->CollectionPaths[1];

					while (CurrCollectionPath->Parent != NULL)
					{
						if (CurrCollectionPath == &ParserData->CollectionPaths[HID_MAX_COLLECTIONS - 1])
  aa:	00 00       	nop

000000ac <ProductString>:
  ac:	1e 03 4c 00 55 00 46 00 41 00 20 00 4d 00 49 00     ..L.U.F.A. .M.I.
				break;

			case HID_RI_REPORT_ID(0):
				CurrStateTable->ReportID                    = ReportItemData;

				if (ParserData->UsingReportIDs)
  bc:	44 00 49 00 20 00 44 00 65 00 6d 00 6f 00 00 00     D.I. .D.e.m.o...

000000cc <ManufacturerString>:
				{
					CurrReportIDInfo = NULL;

					for (uint8_t i = 0; i < ParserData->TotalDeviceReports; i++)
  cc:	18 03 44 00 65 00 61 00 6e 00 20 00 43 00 61 00     ..D.e.a.n. .C.a.
	memset(CurrStateTable,   0x00, sizeof(HID_StateTable_t));
	memset(CurrReportIDInfo, 0x00, sizeof(HID_ReportSizeInfo_t));

	ParserData->TotalDeviceReports = 1;

	while (ReportSize)
  dc:	6d 00 65 00 72 00 61 00 00 00                       m.e.r.a...

000000e6 <LanguageString>:
	{
		uint8_t  HIDReportItem  = *ReportData;
  e6:	04 03 09 04                                         ....

000000ea <ConfigurationDescriptor>:
		uint32_t ReportItemData;

		ReportData++;
		ReportSize--;

		switch (HIDReportItem & HID_RI_DATA_SIZE_MASK)
  ea:	09 02 65 00 02 01 00 c0 32 09 04 00 00 00 01 01     ..e.....2.......
	while (ReportSize)
	{
		uint8_t  HIDReportItem  = *ReportData;
		uint32_t ReportItemData;

		ReportData++;
  fa:	00 00 09 24 01 00 01 09 00 01 01 09 04 01 00 02     ...$............
		ReportSize--;

		switch (HIDReportItem & HID_RI_DATA_SIZE_MASK)
		{
			case HID_RI_DATA_BITS_32:
				ReportItemData  = (((uint32_t)ReportData[3] << 24) | ((uint32_t)ReportData[2] << 16) |
 10a:	01 03 00 00 07 24 01 00 01 41 00 06 24 02 01 01     .....$...A..$...
 11a:	00 06 24 02 02 02 00 09 24 03 01 03 01 02 01 00     ..$.....$.......
			                       ((uint16_t)ReportData[1] << 8)  | ReportData[0]);
 12a:	09 24 03 02 04 01 01 01 00 09 05 01 02 40 00 05     .$...........@..
		ReportSize--;

		switch (HIDReportItem & HID_RI_DATA_SIZE_MASK)
		{
			case HID_RI_DATA_BITS_32:
				ReportItemData  = (((uint32_t)ReportData[3] << 24) | ((uint32_t)ReportData[2] << 16) |
 13a:	00 00 05 25 01 01 01 09 05 82 02 40 00 05 00 00     ...%.......@....
			                       ((uint16_t)ReportData[1] << 8)  | ReportData[0]);
				ReportSize     -= 4;
				ReportData     += 4;
 14a:	05 25 01 01 03                                      .%...

0000014f <DeviceDescriptor>:
				break;
 14f:	12 01 10 01 00 00 00 08 eb 03 48 20 01 00 01 02     ..........H ....

			case HID_RI_DATA_BITS_16:
				ReportItemData  = (((uint16_t)ReportData[1] << 8) | (ReportData[0]));
 15f:	00 01 00                                            ...

00000162 <__ctors_end>:
				ReportSize     -= 2;
 162:	11 24       	eor	r1, r1
 164:	1f be       	out	0x3f, r1	; 63
				ReportData     += 2;
 166:	cf ef       	ldi	r28, 0xFF	; 255
 168:	da e0       	ldi	r29, 0x0A	; 10
 16a:	de bf       	out	0x3e, r29	; 62
				break;
 16c:	cd bf       	out	0x3d, r28	; 61

0000016e <__do_copy_data>:

			case HID_RI_DATA_BITS_8:
				ReportItemData  = ReportData[0];
 16e:	11 e0       	ldi	r17, 0x01	; 1
 170:	a0 e0       	ldi	r26, 0x00	; 0
 172:	b1 e0       	ldi	r27, 0x01	; 1
 174:	ee ec       	ldi	r30, 0xCE	; 206
 176:	fd e0       	ldi	r31, 0x0D	; 13
 178:	02 c0       	rjmp	.+4      	; 0x17e <__do_copy_data+0x10>
				ReportSize     -= 1;
 17a:	05 90       	lpm	r0, Z+
 17c:	0d 92       	st	X+, r0
				ReportData     += 1;
 17e:	ac 30       	cpi	r26, 0x0C	; 12
 180:	b1 07       	cpc	r27, r17
 182:	d9 f7       	brne	.-10     	; 0x17a <__do_copy_data+0xc>

00000184 <__do_clear_bss>:
			default:
				ReportItemData  = 0;
				break;
		}

		switch (HIDReportItem & (HID_RI_TYPE_MASK | HID_RI_TAG_MASK))
 184:	11 e0       	ldi	r17, 0x01	; 1
 186:	ac e0       	ldi	r26, 0x0C	; 12
 188:	b1 e0       	ldi	r27, 0x01	; 1
 18a:	01 c0       	rjmp	.+2      	; 0x18e <.do_clear_bss_start>

0000018c <.do_clear_bss_loop>:
 18c:	1d 92       	st	X+, r1

0000018e <.do_clear_bss_start>:
 18e:	a9 31       	cpi	r26, 0x19	; 25
 190:	b1 07       	cpc	r27, r17
 192:	e1 f7       	brne	.-8      	; 0x18c <.do_clear_bss_loop>
 194:	48 d0       	rcall	.+144    	; 0x226 <main>
 196:	19 c6       	rjmp	.+3122   	; 0xdca <_exit>

00000198 <__bad_interrupt>:
 198:	33 cf       	rjmp	.-410    	; 0x0 <__vectors>

0000019a <SetupHardware>:
 19a:	84 b7       	in	r24, 0x34	; 52
 19c:	87 7f       	andi	r24, 0xF7	; 247
 19e:	84 bf       	out	0x34, r24	; 52
 1a0:	88 e1       	ldi	r24, 0x18	; 24
 1a2:	0f b6       	in	r0, 0x3f	; 63
 1a4:	f8 94       	cli
 1a6:	80 93 60 00 	sts	0x0060, r24

			case HID_RI_USAGE_PAGE(0):
				if ((HIDReportItem & HID_RI_DATA_SIZE_MASK) == HID_RI_DATA_BITS_32)
				  CurrStateTable->Attributes.Usage.Page = (ReportItemData >> 16);

				CurrStateTable->Attributes.Usage.Page       = ReportItemData;
 1aa:	10 92 60 00 	sts	0x0060, r1
 1ae:	0f be       	out	0x3f, r0	; 63
 1b0:	90 e0       	ldi	r25, 0x00	; 0
 1b2:	80 e8       	ldi	r24, 0x80	; 128
				break;
 1b4:	0f b6       	in	r0, 0x3f	; 63
			default:
				ReportItemData  = 0;
				break;
		}

		switch (HIDReportItem & (HID_RI_TYPE_MASK | HID_RI_TAG_MASK))
 1b6:	f8 94       	cli
 1b8:	80 93 61 00 	sts	0x0061, r24
 1bc:	90 93 61 00 	sts	0x0061, r25
 1c0:	0f be       	out	0x3f, r0	; 63
 1c2:	20 9a       	sbi	0x04, 0	; 4
 1c4:	28 98       	cbi	0x05, 0	; 5
 1c6:	55 9a       	sbi	0x0a, 5	; 10
 1c8:	5d 98       	cbi	0x0b, 5	; 11
 1ca:	3f 9a       	sbi	0x07, 7	; 7
 1cc:	47 98       	cbi	0x08, 7	; 8
 1ce:	29 d3       	rcall	.+1618   	; 0x822 <USB_Init>
 1d0:	51 98       	cbi	0x0a, 1	; 10
 1d2:	50 9a       	sbi	0x0a, 0	; 10
 1d4:	ec e7       	ldi	r30, 0x7C	; 124
				UsageMinMax.Minimum = ReportItemData;
				break;

			case HID_RI_USAGE_MAXIMUM(0):
				UsageMinMax.Maximum = ReportItemData;
				break;
 1d6:	f0 e0       	ldi	r31, 0x00	; 0
 1d8:	80 81       	ld	r24, Z
 1da:	8f 77       	andi	r24, 0x7F	; 127
			default:
				ReportItemData  = 0;
				break;
		}

		switch (HIDReportItem & (HID_RI_TYPE_MASK | HID_RI_TAG_MASK))
 1dc:	80 83       	st	Z, r24
 1de:	80 81       	ld	r24, Z
 1e0:	80 64       	ori	r24, 0x40	; 64
 1e2:	80 83       	st	Z, r24
 1e4:	80 81       	ld	r24, Z
 1e6:	87 7c       	andi	r24, 0xC7	; 199
			case HID_RI_PHYSICAL_MAXIMUM(0):
				CurrStateTable->Attributes.Physical.Maximum = ReportItemData;
				break;

			case HID_RI_UNIT_EXPONENT(0):
				CurrStateTable->Attributes.Unit.Exponent    = ReportItemData;
 1e8:	80 83       	st	Z, r24
 1ea:	80 81       	ld	r24, Z
				break;
 1ec:	87 60       	ori	r24, 0x07	; 7
			default:
				ReportItemData  = 0;
				break;
		}

		switch (HIDReportItem & (HID_RI_TYPE_MASK | HID_RI_TAG_MASK))
 1ee:	80 83       	st	Z, r24
 1f0:	ea e7       	ldi	r30, 0x7A	; 122
 1f2:	f0 e0       	ldi	r31, 0x00	; 0
 1f4:	80 81       	ld	r24, Z
 1f6:	87 60       	ori	r24, 0x07	; 7
 1f8:	80 83       	st	Z, r24
 1fa:	80 81       	ld	r24, Z
 1fc:	80 68       	ori	r24, 0x80	; 128
 1fe:	80 83       	st	Z, r24
 200:	08 95       	ret

00000202 <raw_ADC>:
			case HID_RI_UNIT(0):
				CurrStateTable->Attributes.Unit.Type        = ReportItemData;
				break;

			case HID_RI_REPORT_SIZE(0):
				CurrStateTable->Attributes.BitSize          = ReportItemData;
 202:	80 91 7a 00 	lds	r24, 0x007A
				break;
 206:	80 64       	ori	r24, 0x40	; 64
			default:
				ReportItemData  = 0;
				break;
		}

		switch (HIDReportItem & (HID_RI_TYPE_MASK | HID_RI_TAG_MASK))
 208:	80 93 7a 00 	sts	0x007A, r24
 20c:	80 91 7a 00 	lds	r24, 0x007A
 210:	86 fd       	sbrc	r24, 6
 212:	fc cf       	rjmp	.-8      	; 0x20c <raw_ADC+0xa>
 214:	80 91 78 00 	lds	r24, 0x0078
 218:	90 91 79 00 	lds	r25, 0x0079
 21c:	08 95       	ret

0000021e <led_on>:
 21e:	58 9a       	sbi	0x0b, 0	; 11
 220:	08 95       	ret

00000222 <led_off>:
 222:	58 98       	cbi	0x0b, 0	; 11
 224:	08 95       	ret

00000226 <main>:
 226:	cf 93       	push	r28
 228:	df 93       	push	r29
 22a:	cd b7       	in	r28, 0x3d	; 61
 22c:	de b7       	in	r29, 0x3e	; 62
 22e:	28 97       	sbiw	r28, 0x08	; 8
 230:	0f b6       	in	r0, 0x3f	; 63
 232:	f8 94       	cli
					  return HID_PARSE_InsufficientReportItems;

					memcpy(&ParserData->ReportItems[ParserData->TotalReportItems],
					       &NewReportItem, sizeof(HID_ReportItem_t));

					if (!(ReportItemData & HID_IOF_CONSTANT) && CALLBACK_HIDParser_FilterHIDReportItem(&NewReportItem))
 234:	de bf       	out	0x3e, r29	; 62
 236:	0f be       	out	0x3f, r0	; 63
 238:	cd bf       	out	0x3d, r28	; 61
 23a:	af df       	rcall	.-162    	; 0x19a <SetupHardware>
 23c:	78 94       	sei
 23e:	d9 b0       	in	r13, 0x09	; 9
 240:	8d 2d       	mov	r24, r13
 242:	82 70       	andi	r24, 0x02	; 2
 244:	d8 2e       	mov	r13, r24
 246:	dd df       	rcall	.-70     	; 0x202 <raw_ADC>
 248:	7c 01       	movw	r14, r24
 24a:	39 e0       	ldi	r19, 0x09	; 9
 24c:	b3 2e       	mov	r11, r19
 24e:	40 e9       	ldi	r20, 0x90	; 144
 250:	a4 2e       	mov	r10, r20
		}

		switch (HIDReportItem & (HID_RI_TYPE_MASK | HID_RI_TAG_MASK))
		{
			case HID_RI_PUSH(0):
				if (CurrStateTable == &StateTable[HID_STATETABLE_STACK_DEPTH - 1])
 252:	cc 24       	eor	r12, r12
 254:	c3 94       	inc	r12
 256:	5b e0       	ldi	r21, 0x0B	; 11
 258:	95 2e       	mov	r9, r21
 25a:	60 eb       	ldi	r22, 0xB0	; 176
 25c:	86 2e       	mov	r8, r22
				  return HID_PARSE_HIDStackOverflow;

				memcpy((CurrStateTable + 1),
 25e:	be 01       	movw	r22, r28
 260:	6b 5f       	subi	r22, 0xFB	; 251
 262:	7f 4f       	sbci	r23, 0xFF	; 255
 264:	80 e0       	ldi	r24, 0x00	; 0
 266:	91 e0       	ldi	r25, 0x01	; 1
 268:	8c d5       	rcall	.+2840   	; 0xd82 <MIDI_Device_ReceiveEventPacket>
 26a:	88 23       	and	r24, r24
 26c:	69 f0       	breq	.+26     	; 0x288 <main+0x62>
 26e:	8d 81       	ldd	r24, Y+5	; 0x05
				       CurrStateTable,
				       sizeof(HID_ReportItem_t));

				CurrStateTable++;
 270:	89 30       	cpi	r24, 0x09	; 9
				break;
 272:	a9 f7       	brne	.-22     	; 0x25e <main+0x38>

			case HID_RI_POP(0):
				if (CurrStateTable == &StateTable[0])
 274:	cf 82       	std	Y+7, r12	; 0x07
 276:	88 85       	ldd	r24, Y+8	; 0x08
 278:	81 11       	cpse	r24, r1
 27a:	02 c0       	rjmp	.+4      	; 0x280 <main+0x5a>
 27c:	d0 df       	rcall	.-96     	; 0x21e <led_on>
 27e:	ef cf       	rjmp	.-34     	; 0x25e <main+0x38>
				  return HID_PARSE_HIDStackUnderflow;

				CurrStateTable--;
 280:	8f 37       	cpi	r24, 0x7F	; 127
 282:	69 f7       	brne	.-38     	; 0x25e <main+0x38>
				break;
 284:	ce df       	rcall	.-100    	; 0x222 <led_off>

				CurrStateTable->Attributes.Usage.Page       = ReportItemData;
				break;

			case HID_RI_LOGICAL_MINIMUM(0):
				CurrStateTable->Attributes.Logical.Minimum  = ReportItemData;
 286:	eb cf       	rjmp	.-42     	; 0x25e <main+0x38>
 288:	bc df       	rcall	.-136    	; 0x202 <raw_ADC>
 28a:	8c 01       	movw	r16, r24
 28c:	9c 01       	movw	r18, r24
 28e:	2e 19       	sub	r18, r14
				break;
 290:	3f 09       	sbc	r19, r15

			case HID_RI_LOGICAL_MAXIMUM(0):
				CurrStateTable->Attributes.Logical.Maximum  = ReportItemData;
 292:	37 ff       	sbrs	r19, 7
 294:	03 c0       	rjmp	.+6      	; 0x29c <main+0x76>
 296:	31 95       	neg	r19
 298:	21 95       	neg	r18
 29a:	31 09       	sbc	r19, r1
 29c:	2e 31       	cpi	r18, 0x1E	; 30
 29e:	31 05       	cpc	r19, r1
				break;
 2a0:	ac f0       	brlt	.+42     	; 0x2cc <main+0xa6>

			case HID_RI_PHYSICAL_MINIMUM(0):
				CurrStateTable->Attributes.Physical.Minimum = ReportItemData;
 2a2:	99 82       	std	Y+1, r9	; 0x01
 2a4:	8a 82       	std	Y+2, r8	; 0x02
 2a6:	cb 82       	std	Y+3, r12	; 0x03
 2a8:	c8 01       	movw	r24, r16
 2aa:	23 e0       	ldi	r18, 0x03	; 3
				break;
 2ac:	96 95       	lsr	r25

			case HID_RI_PHYSICAL_MAXIMUM(0):
				CurrStateTable->Attributes.Physical.Maximum = ReportItemData;
 2ae:	87 95       	ror	r24
 2b0:	2a 95       	dec	r18
 2b2:	e1 f7       	brne	.-8      	; 0x2ac <main+0x86>
 2b4:	8c 83       	std	Y+4, r24	; 0x04
 2b6:	be 01       	movw	r22, r28
 2b8:	6f 5f       	subi	r22, 0xFF	; 255
 2ba:	7f 4f       	sbci	r23, 0xFF	; 255
				break;
 2bc:	80 e0       	ldi	r24, 0x00	; 0
			case HID_RI_UNIT_EXPONENT(0):
				CurrStateTable->Attributes.Unit.Exponent    = ReportItemData;
				break;

			case HID_RI_UNIT(0):
				CurrStateTable->Attributes.Unit.Type        = ReportItemData;
 2be:	91 e0       	ldi	r25, 0x01	; 1
 2c0:	18 d5       	rcall	.+2608   	; 0xcf2 <MIDI_Device_SendEventPacket>
 2c2:	80 e0       	ldi	r24, 0x00	; 0
 2c4:	91 e0       	ldi	r25, 0x01	; 1
 2c6:	34 d5       	rcall	.+2664   	; 0xd30 <MIDI_Device_Flush>
 2c8:	78 01       	movw	r14, r16
 2ca:	18 c0       	rjmp	.+48     	; 0x2fc <main+0xd6>
				break;
 2cc:	19 b1       	in	r17, 0x09	; 9
			case HID_RI_REPORT_SIZE(0):
				CurrStateTable->Attributes.BitSize          = ReportItemData;
				break;

			case HID_RI_REPORT_COUNT(0):
				CurrStateTable->ReportCount                 = ReportItemData;
 2ce:	12 70       	andi	r17, 0x02	; 2
 2d0:	1d 15       	cp	r17, r13
 2d2:	a1 f0       	breq	.+40     	; 0x2fc <main+0xd6>
				break;
 2d4:	82 e0       	ldi	r24, 0x02	; 2

			case HID_RI_REPORT_ID(0):
				CurrStateTable->ReportID                    = ReportItemData;
 2d6:	d8 16       	cp	r13, r24
 2d8:	11 f0       	breq	.+4      	; 0x2de <main+0xb8>
 2da:	80 e0       	ldi	r24, 0x00	; 0

				if (ParserData->UsingReportIDs)
 2dc:	01 c0       	rjmp	.+2      	; 0x2e0 <main+0xba>
 2de:	8f e7       	ldi	r24, 0x7F	; 127
 2e0:	b9 82       	std	Y+1, r11	; 0x01
 2e2:	aa 82       	std	Y+2, r10	; 0x02
 2e4:	cb 82       	std	Y+3, r12	; 0x03
 2e6:	8c 83       	std	Y+4, r24	; 0x04
 2e8:	be 01       	movw	r22, r28
 2ea:	6f 5f       	subi	r22, 0xFF	; 255
				{
					CurrReportIDInfo = NULL;

					for (uint8_t i = 0; i < ParserData->TotalDeviceReports; i++)
 2ec:	7f 4f       	sbci	r23, 0xFF	; 255
 2ee:	80 e0       	ldi	r24, 0x00	; 0
 2f0:	91 e0       	ldi	r25, 0x01	; 1
 2f2:	ff d4       	rcall	.+2558   	; 0xcf2 <MIDI_Device_SendEventPacket>
 2f4:	80 e0       	ldi	r24, 0x00	; 0
 2f6:	91 e0       	ldi	r25, 0x01	; 1
 2f8:	1b d5       	rcall	.+2614   	; 0xd30 <MIDI_Device_Flush>
 2fa:	d1 2e       	mov	r13, r17
 2fc:	80 e0       	ldi	r24, 0x00	; 0
 2fe:	91 e0       	ldi	r25, 0x01	; 1
 300:	32 d5       	rcall	.+2660   	; 0xd66 <MIDI_Device_USBTask>
 302:	c4 d4       	rcall	.+2440   	; 0xc8c <USB_USBTask>
					{
						if (ParserData->ReportIDSizes[i].ReportID == CurrStateTable->ReportID)
 304:	ac cf       	rjmp	.-168    	; 0x25e <main+0x38>

00000306 <EVENT_USB_Device_Connect>:
 306:	08 95       	ret

00000308 <EVENT_USB_Device_Disconnect>:
 308:	08 95       	ret

0000030a <EVENT_USB_Device_ConfigurationChanged>:
 30a:	80 e0       	ldi	r24, 0x00	; 0
 30c:	91 e0       	ldi	r25, 0x01	; 1
 30e:	da c4       	rjmp	.+2484   	; 0xcc4 <MIDI_Device_ConfigureEndpoints>

00000310 <EVENT_USB_Device_ControlRequest>:
 310:	08 95       	ret

00000312 <CALLBACK_USB_GetDescriptor>:
 312:	29 2f       	mov	r18, r25
 314:	33 27       	eor	r19, r19
 316:	22 30       	cpi	r18, 0x02	; 2
						{
							CurrReportIDInfo = &ParserData->ReportIDSizes[i];
 318:	31 05       	cpc	r19, r1
 31a:	59 f0       	breq	.+22     	; 0x332 <CALLBACK_USB_GetDescriptor+0x20>
 31c:	23 30       	cpi	r18, 0x03	; 3
 31e:	31 05       	cpc	r19, r1
 320:	69 f0       	breq	.+26     	; 0x33c <CALLBACK_USB_GetDescriptor+0x2a>
 322:	21 30       	cpi	r18, 0x01	; 1
 324:	31 05       	cpc	r19, r1
 326:	f9 f4       	brne	.+62     	; 0x366 <CALLBACK_USB_GetDescriptor+0x54>
 328:	82 e1       	ldi	r24, 0x12	; 18
 32a:	90 e0       	ldi	r25, 0x00	; 0
 32c:	2f e4       	ldi	r18, 0x4F	; 79
 32e:	31 e0       	ldi	r19, 0x01	; 1
 330:	1e c0       	rjmp	.+60     	; 0x36e <CALLBACK_USB_GetDescriptor+0x5c>
 332:	85 e6       	ldi	r24, 0x65	; 101
 334:	90 e0       	ldi	r25, 0x00	; 0
 336:	2a ee       	ldi	r18, 0xEA	; 234
						}
					}

					if (CurrReportIDInfo == NULL)
					{
						if (ParserData->TotalDeviceReports == HID_MAX_REPORT_IDS)
 338:	30 e0       	ldi	r19, 0x00	; 0
 33a:	19 c0       	rjmp	.+50     	; 0x36e <CALLBACK_USB_GetDescriptor+0x5c>
 33c:	99 27       	eor	r25, r25
						  return HID_PARSE_InsufficientReportIDItems;

						CurrReportIDInfo = &ParserData->ReportIDSizes[ParserData->TotalDeviceReports++];
 33e:	81 30       	cpi	r24, 0x01	; 1
 340:	91 05       	cpc	r25, r1
 342:	41 f0       	breq	.+16     	; 0x354 <CALLBACK_USB_GetDescriptor+0x42>
 344:	82 30       	cpi	r24, 0x02	; 2
 346:	91 05       	cpc	r25, r1
 348:	41 f0       	breq	.+16     	; 0x35a <CALLBACK_USB_GetDescriptor+0x48>
 34a:	89 2b       	or	r24, r25
 34c:	61 f4       	brne	.+24     	; 0x366 <CALLBACK_USB_GetDescriptor+0x54>
 34e:	e6 ee       	ldi	r30, 0xE6	; 230
 350:	f0 e0       	ldi	r31, 0x00	; 0
 352:	05 c0       	rjmp	.+10     	; 0x35e <CALLBACK_USB_GetDescriptor+0x4c>
 354:	ec ec       	ldi	r30, 0xCC	; 204
 356:	f0 e0       	ldi	r31, 0x00	; 0
 358:	02 c0       	rjmp	.+4      	; 0x35e <CALLBACK_USB_GetDescriptor+0x4c>
 35a:	ec ea       	ldi	r30, 0xAC	; 172
 35c:	f0 e0       	ldi	r31, 0x00	; 0
 35e:	84 91       	lpm	r24, Z
 360:	90 e0       	ldi	r25, 0x00	; 0
 362:	9f 01       	movw	r18, r30
						memset(CurrReportIDInfo, 0x00, sizeof(HID_ReportSizeInfo_t));
 364:	04 c0       	rjmp	.+8      	; 0x36e <CALLBACK_USB_GetDescriptor+0x5c>
 366:	80 e0       	ldi	r24, 0x00	; 0
 368:	90 e0       	ldi	r25, 0x00	; 0
 36a:	20 e0       	ldi	r18, 0x00	; 0
					}
				}

				ParserData->UsingReportIDs = true;
 36c:	30 e0       	ldi	r19, 0x00	; 0
 36e:	fa 01       	movw	r30, r20
 370:	31 83       	std	Z+1, r19	; 0x01
 372:	20 83       	st	Z, r18
 374:	08 95       	ret

00000376 <Endpoint_Write_Stream_LE>:
 376:	cf 92       	push	r12

				CurrReportIDInfo->ReportID = CurrStateTable->ReportID;
 378:	df 92       	push	r13
 37a:	ef 92       	push	r14
 37c:	ff 92       	push	r15
 37e:	0f 93       	push	r16
 380:	1f 93       	push	r17
 382:	cf 93       	push	r28
 384:	df 93       	push	r29
 386:	7c 01       	movw	r14, r24
				break;
 388:	8b 01       	movw	r16, r22

			case HID_RI_USAGE(0):
				if (UsageListSize == HID_USAGE_STACK_DEPTH)
 38a:	ea 01       	movw	r28, r20
 38c:	da d1       	rcall	.+948    	; 0x742 <Endpoint_WaitUntilReady>
 38e:	81 11       	cpse	r24, r1
 390:	31 c0       	rjmp	.+98     	; 0x3f4 <Endpoint_Write_Stream_LE+0x7e>
 392:	20 97       	sbiw	r28, 0x00	; 0
 394:	31 f0       	breq	.+12     	; 0x3a2 <Endpoint_Write_Stream_LE+0x2c>
				  return HID_PARSE_UsageListOverflow;

				UsageList[UsageListSize++] = ReportItemData;
 396:	88 81       	ld	r24, Y
 398:	99 81       	ldd	r25, Y+1	; 0x01
 39a:	08 1b       	sub	r16, r24
 39c:	19 0b       	sbc	r17, r25
 39e:	e8 0e       	add	r14, r24
 3a0:	f9 1e       	adc	r15, r25
 3a2:	c1 2c       	mov	r12, r1
 3a4:	d1 2c       	mov	r13, r1
 3a6:	01 15       	cp	r16, r1
 3a8:	11 05       	cpc	r17, r1
 3aa:	19 f1       	breq	.+70     	; 0x3f2 <Endpoint_Write_Stream_LE+0x7c>
 3ac:	80 91 e8 00 	lds	r24, 0x00E8
				break;
 3b0:	85 fd       	sbrc	r24, 5
			case HID_RI_USAGE_MAXIMUM(0):
				UsageMinMax.Maximum = ReportItemData;
				break;

			case HID_RI_COLLECTION(0):
				if (CurrCollectionPath == NULL)
 3b2:	14 c0       	rjmp	.+40     	; 0x3dc <Endpoint_Write_Stream_LE+0x66>
 3b4:	80 91 e8 00 	lds	r24, 0x00E8
 3b8:	8e 77       	andi	r24, 0x7E	; 126
 3ba:	80 93 e8 00 	sts	0x00E8, r24
				{
					CurrCollectionPath = &ParserData->CollectionPaths[0];
 3be:	66 d4       	rcall	.+2252   	; 0xc8c <USB_USBTask>
 3c0:	20 97       	sbiw	r28, 0x00	; 0
 3c2:	41 f0       	breq	.+16     	; 0x3d4 <Endpoint_Write_Stream_LE+0x5e>
 3c4:	88 81       	ld	r24, Y
 3c6:	99 81       	ldd	r25, Y+1	; 0x01
 3c8:	8c 0d       	add	r24, r12
 3ca:	9d 1d       	adc	r25, r13
 3cc:	99 83       	std	Y+1, r25	; 0x01
				}
				else
				{
					HID_CollectionPath_t* ParentCollectionPath = CurrCollectionPath;

					CurrCollectionPath = &ParserData->CollectionPaths[1];
 3ce:	88 83       	st	Y, r24
 3d0:	85 e0       	ldi	r24, 0x05	; 5
 3d2:	10 c0       	rjmp	.+32     	; 0x3f4 <Endpoint_Write_Stream_LE+0x7e>

					while (CurrCollectionPath->Parent != NULL)
 3d4:	b6 d1       	rcall	.+876    	; 0x742 <Endpoint_WaitUntilReady>
 3d6:	88 23       	and	r24, r24
 3d8:	31 f3       	breq	.-52     	; 0x3a6 <Endpoint_Write_Stream_LE+0x30>
 3da:	0c c0       	rjmp	.+24     	; 0x3f4 <Endpoint_Write_Stream_LE+0x7e>
					{
						if (CurrCollectionPath == &ParserData->CollectionPaths[HID_MAX_COLLECTIONS - 1])
 3dc:	f7 01       	movw	r30, r14
 3de:	81 91       	ld	r24, Z+
 3e0:	7f 01       	movw	r14, r30
 3e2:	80 93 f1 00 	sts	0x00F1, r24
 3e6:	01 50       	subi	r16, 0x01	; 1
 3e8:	11 09       	sbc	r17, r1
 3ea:	ff ef       	ldi	r31, 0xFF	; 255
 3ec:	cf 1a       	sub	r12, r31
 3ee:	df 0a       	sbc	r13, r31
						  return HID_PARSE_InsufficientCollectionPaths;

						CurrCollectionPath++;
 3f0:	da cf       	rjmp	.-76     	; 0x3a6 <Endpoint_Write_Stream_LE+0x30>
 3f2:	80 e0       	ldi	r24, 0x00	; 0
					}

					CurrCollectionPath->Parent = ParentCollectionPath;
 3f4:	df 91       	pop	r29
 3f6:	cf 91       	pop	r28
 3f8:	1f 91       	pop	r17
 3fa:	0f 91       	pop	r16
 3fc:	ff 90       	pop	r15
 3fe:	ef 90       	pop	r14
 400:	df 90       	pop	r13
 402:	cf 90       	pop	r12
 404:	08 95       	ret

00000406 <Endpoint_Read_Stream_LE>:
 406:	cf 92       	push	r12
				}

				CurrCollectionPath->Type       = ReportItemData;
 408:	df 92       	push	r13
 40a:	ef 92       	push	r14
 40c:	ff 92       	push	r15
 40e:	0f 93       	push	r16
 410:	1f 93       	push	r17
				CurrCollectionPath->Usage.Page = CurrStateTable->Attributes.Usage.Page;
 412:	cf 93       	push	r28
 414:	df 93       	push	r29
 416:	7c 01       	movw	r14, r24
 418:	8b 01       	movw	r16, r22
 41a:	ea 01       	movw	r28, r20
 41c:	92 d1       	rcall	.+804    	; 0x742 <Endpoint_WaitUntilReady>
 41e:	81 11       	cpse	r24, r1

				if (UsageListSize)
 420:	31 c0       	rjmp	.+98     	; 0x484 <Endpoint_Read_Stream_LE+0x7e>
 422:	20 97       	sbiw	r28, 0x00	; 0
 424:	31 f0       	breq	.+12     	; 0x432 <Endpoint_Read_Stream_LE+0x2c>
 426:	88 81       	ld	r24, Y
 428:	99 81       	ldd	r25, Y+1	; 0x01
				{
					CurrCollectionPath->Usage.Usage = UsageList[0];
 42a:	08 1b       	sub	r16, r24
 42c:	19 0b       	sbc	r17, r25
 42e:	e8 0e       	add	r14, r24
 430:	f9 1e       	adc	r15, r25
 432:	c1 2c       	mov	r12, r1
 434:	d1 2c       	mov	r13, r1
 436:	01 15       	cp	r16, r1
 438:	11 05       	cpc	r17, r1
 43a:	19 f1       	breq	.+70     	; 0x482 <Endpoint_Read_Stream_LE+0x7c>
 43c:	80 91 e8 00 	lds	r24, 0x00E8

					for (uint8_t i = 1; i < UsageListSize; i++)
 440:	85 fd       	sbrc	r24, 5
 442:	14 c0       	rjmp	.+40     	; 0x46c <Endpoint_Read_Stream_LE+0x66>
 444:	80 91 e8 00 	lds	r24, 0x00E8
 448:	8b 77       	andi	r24, 0x7B	; 123
 44a:	80 93 e8 00 	sts	0x00E8, r24
					  UsageList[i - 1] = UsageList[i];
 44e:	1e d4       	rcall	.+2108   	; 0xc8c <USB_USBTask>
 450:	20 97       	sbiw	r28, 0x00	; 0
 452:	41 f0       	breq	.+16     	; 0x464 <Endpoint_Read_Stream_LE+0x5e>

				if (UsageListSize)
				{
					CurrCollectionPath->Usage.Usage = UsageList[0];

					for (uint8_t i = 1; i < UsageListSize; i++)
 454:	88 81       	ld	r24, Y
 456:	99 81       	ldd	r25, Y+1	; 0x01
					  UsageList[i - 1] = UsageList[i];

					UsageListSize--;
 458:	8c 0d       	add	r24, r12
 45a:	9d 1d       	adc	r25, r13
 45c:	99 83       	std	Y+1, r25	; 0x01
 45e:	88 83       	st	Y, r24
 460:	85 e0       	ldi	r24, 0x05	; 5
				}
				else if (UsageMinMax.Minimum <= UsageMinMax.Maximum)
 462:	10 c0       	rjmp	.+32     	; 0x484 <Endpoint_Read_Stream_LE+0x7e>
 464:	6e d1       	rcall	.+732    	; 0x742 <Endpoint_WaitUntilReady>
 466:	88 23       	and	r24, r24
 468:	31 f3       	breq	.-52     	; 0x436 <Endpoint_Read_Stream_LE+0x30>
 46a:	0c c0       	rjmp	.+24     	; 0x484 <Endpoint_Read_Stream_LE+0x7e>
 46c:	80 91 f1 00 	lds	r24, 0x00F1
				{
					CurrCollectionPath->Usage.Usage = UsageMinMax.Minimum++;
 470:	f7 01       	movw	r30, r14
 472:	81 93       	st	Z+, r24
 474:	7f 01       	movw	r14, r30
 476:	01 50       	subi	r16, 0x01	; 1
 478:	11 09       	sbc	r17, r1
 47a:	ff ef       	ldi	r31, 0xFF	; 255
 47c:	cf 1a       	sub	r12, r31
 47e:	df 0a       	sbc	r13, r31
 480:	da cf       	rjmp	.-76     	; 0x436 <Endpoint_Read_Stream_LE+0x30>
 482:	80 e0       	ldi	r24, 0x00	; 0
 484:	df 91       	pop	r29
 486:	cf 91       	pop	r28
 488:	1f 91       	pop	r17
				}

				break;

			case HID_RI_END_COLLECTION(0):
				if (CurrCollectionPath == NULL)
 48a:	0f 91       	pop	r16
 48c:	ff 90       	pop	r15
 48e:	ef 90       	pop	r14
 490:	df 90       	pop	r13
 492:	cf 90       	pop	r12
 494:	08 95       	ret

00000496 <Endpoint_Write_Control_Stream_LE>:
 496:	20 91 17 01 	lds	r18, 0x0117
				  return HID_PARSE_UnexpectedEndCollection;

				CurrCollectionPath = CurrCollectionPath->Parent;
 49a:	30 91 18 01 	lds	r19, 0x0118
 49e:	26 17       	cp	r18, r22
 4a0:	37 07       	cpc	r19, r23
 4a2:	48 f0       	brcs	.+18     	; 0x4b6 <Endpoint_Write_Control_Stream_LE+0x20>
 4a4:	61 15       	cp	r22, r1
 4a6:	71 05       	cpc	r23, r1
 4a8:	39 f4       	brne	.+14     	; 0x4b8 <Endpoint_Write_Control_Stream_LE+0x22>
 4aa:	20 91 e8 00 	lds	r18, 0x00E8
					ParserData->LargestReportSizeBits = MAX(ParserData->LargestReportSizeBits, CurrReportIDInfo->ReportSizeBits[NewReportItem.ItemType]);

					if (ParserData->TotalReportItems == HID_MAX_REPORTITEMS)
					  return HID_PARSE_InsufficientReportItems;

					memcpy(&ParserData->ReportItems[ParserData->TotalReportItems],
 4ae:	2e 77       	andi	r18, 0x7E	; 126
 4b0:	20 93 e8 00 	sts	0x00E8, r18
 4b4:	01 c0       	rjmp	.+2      	; 0x4b8 <Endpoint_Write_Control_Stream_LE+0x22>
 4b6:	b9 01       	movw	r22, r18
 4b8:	fc 01       	movw	r30, r24
 4ba:	20 e0       	ldi	r18, 0x00	; 0
 4bc:	61 15       	cp	r22, r1
 4be:	71 05       	cpc	r23, r1
 4c0:	b9 f1       	breq	.+110    	; 0x530 <Endpoint_Write_Control_Stream_LE+0x9a>
 4c2:	80 91 10 01 	lds	r24, 0x0110
 4c6:	88 23       	and	r24, r24
 4c8:	09 f4       	brne	.+2      	; 0x4cc <Endpoint_Write_Control_Stream_LE+0x36>
					       &NewReportItem, sizeof(HID_ReportItem_t));

					if (!(ReportItemData & HID_IOF_CONSTANT) && CALLBACK_HIDParser_FilterHIDReportItem(&NewReportItem))
 4ca:	40 c0       	rjmp	.+128    	; 0x54c <Endpoint_Write_Control_Stream_LE+0xb6>
 4cc:	85 30       	cpi	r24, 0x05	; 5
 4ce:	09 f4       	brne	.+2      	; 0x4d2 <Endpoint_Write_Control_Stream_LE+0x3c>
 4d0:	3f c0       	rjmp	.+126    	; 0x550 <Endpoint_Write_Control_Stream_LE+0xba>
 4d2:	80 91 e8 00 	lds	r24, 0x00E8
 4d6:	83 fd       	sbrc	r24, 3
 4d8:	3d c0       	rjmp	.+122    	; 0x554 <Endpoint_Write_Control_Stream_LE+0xbe>
 4da:	80 91 e8 00 	lds	r24, 0x00E8
 4de:	82 ff       	sbrs	r24, 2
 4e0:	06 c0       	rjmp	.+12     	; 0x4ee <Endpoint_Write_Control_Stream_LE+0x58>
 4e2:	80 91 e8 00 	lds	r24, 0x00E8
				break;

			case HID_RI_INPUT(0):
			case HID_RI_OUTPUT(0):
			case HID_RI_FEATURE(0):
				for (uint8_t ReportItemNum = 0; ReportItemNum < CurrStateTable->ReportCount; ReportItemNum++)
 4e6:	82 ff       	sbrs	r24, 2
 4e8:	26 c0       	rjmp	.+76     	; 0x536 <Endpoint_Write_Control_Stream_LE+0xa0>
 4ea:	80 e0       	ldi	r24, 0x00	; 0
 4ec:	08 95       	ret
 4ee:	80 91 e8 00 	lds	r24, 0x00E8
				{
					HID_ReportItem_t NewReportItem;

					memcpy(&NewReportItem.Attributes,
 4f2:	80 ff       	sbrs	r24, 0
 4f4:	e3 cf       	rjmp	.-58     	; 0x4bc <Endpoint_Write_Control_Stream_LE+0x26>
 4f6:	20 91 f3 00 	lds	r18, 0x00F3
 4fa:	80 91 f2 00 	lds	r24, 0x00F2
 4fe:	90 e0       	ldi	r25, 0x00	; 0
 500:	92 2b       	or	r25, r18
					       &CurrStateTable->Attributes,
					       sizeof(HID_ReportItem_Attributes_t));

					NewReportItem.ItemFlags      = ReportItemData;
 502:	61 15       	cp	r22, r1
 504:	71 05       	cpc	r23, r1
					NewReportItem.CollectionPath = CurrCollectionPath;
 506:	51 f0       	breq	.+20     	; 0x51c <Endpoint_Write_Control_Stream_LE+0x86>
 508:	88 30       	cpi	r24, 0x08	; 8
 50a:	91 05       	cpc	r25, r1
 50c:	38 f4       	brcc	.+14     	; 0x51c <Endpoint_Write_Control_Stream_LE+0x86>
 50e:	21 91       	ld	r18, Z+
 510:	20 93 f1 00 	sts	0x00F1, r18
 514:	61 50       	subi	r22, 0x01	; 1
					NewReportItem.ReportID       = CurrStateTable->ReportID;
 516:	71 09       	sbc	r23, r1
 518:	01 96       	adiw	r24, 0x01	; 1
 51a:	f3 cf       	rjmp	.-26     	; 0x502 <Endpoint_Write_Control_Stream_LE+0x6c>
 51c:	21 e0       	ldi	r18, 0x01	; 1

					if (UsageListSize)
 51e:	08 97       	sbiw	r24, 0x08	; 8
 520:	09 f0       	breq	.+2      	; 0x524 <Endpoint_Write_Control_Stream_LE+0x8e>
 522:	20 e0       	ldi	r18, 0x00	; 0
 524:	80 91 e8 00 	lds	r24, 0x00E8
					{
						NewReportItem.Attributes.Usage.Usage = UsageList[0];
 528:	8e 77       	andi	r24, 0x7E	; 126
 52a:	80 93 e8 00 	sts	0x00E8, r24
 52e:	c6 cf       	rjmp	.-116    	; 0x4bc <Endpoint_Write_Control_Stream_LE+0x26>
 530:	21 11       	cpse	r18, r1
 532:	c7 cf       	rjmp	.-114    	; 0x4c2 <Endpoint_Write_Control_Stream_LE+0x2c>
 534:	d6 cf       	rjmp	.-84     	; 0x4e2 <Endpoint_Write_Control_Stream_LE+0x4c>
 536:	80 91 10 01 	lds	r24, 0x0110
 53a:	88 23       	and	r24, r24
 53c:	39 f0       	breq	.+14     	; 0x54c <Endpoint_Write_Control_Stream_LE+0xb6>

						for (uint8_t i = 1; i < UsageListSize; i++)
 53e:	85 30       	cpi	r24, 0x05	; 5
 540:	39 f0       	breq	.+14     	; 0x550 <Endpoint_Write_Control_Stream_LE+0xba>
 542:	80 91 e8 00 	lds	r24, 0x00E8
 546:	83 ff       	sbrs	r24, 3
 548:	cc cf       	rjmp	.-104    	; 0x4e2 <Endpoint_Write_Control_Stream_LE+0x4c>
						  UsageList[i - 1] = UsageList[i];
 54a:	04 c0       	rjmp	.+8      	; 0x554 <Endpoint_Write_Control_Stream_LE+0xbe>
 54c:	82 e0       	ldi	r24, 0x02	; 2
 54e:	08 95       	ret
 550:	83 e0       	ldi	r24, 0x03	; 3

					if (UsageListSize)
					{
						NewReportItem.Attributes.Usage.Usage = UsageList[0];

						for (uint8_t i = 1; i < UsageListSize; i++)
 552:	08 95       	ret
 554:	81 e0       	ldi	r24, 0x01	; 1
						  UsageList[i - 1] = UsageList[i];

						UsageListSize--;
 556:	08 95       	ret

00000558 <Endpoint_Write_Control_PStream_LE>:
 558:	20 91 17 01 	lds	r18, 0x0117
 55c:	30 91 18 01 	lds	r19, 0x0118
					}
					else if (UsageMinMax.Minimum <= UsageMinMax.Maximum)
 560:	26 17       	cp	r18, r22
 562:	37 07       	cpc	r19, r23
 564:	48 f0       	brcs	.+18     	; 0x578 <Endpoint_Write_Control_PStream_LE+0x20>
 566:	61 15       	cp	r22, r1
 568:	71 05       	cpc	r23, r1
					{
						NewReportItem.Attributes.Usage.Usage = UsageMinMax.Minimum++;
 56a:	39 f4       	brne	.+14     	; 0x57a <Endpoint_Write_Control_PStream_LE+0x22>
 56c:	20 91 e8 00 	lds	r18, 0x00E8
 570:	2e 77       	andi	r18, 0x7E	; 126
 572:	20 93 e8 00 	sts	0x00E8, r18
 576:	01 c0       	rjmp	.+2      	; 0x57a <Endpoint_Write_Control_PStream_LE+0x22>
 578:	b9 01       	movw	r22, r18
 57a:	fc 01       	movw	r30, r24
					}

					uint8_t ItemTypeTag = (HIDReportItem & (HID_RI_TYPE_MASK | HID_RI_TAG_MASK));

					if (ItemTypeTag == HID_RI_INPUT(0))
 57c:	20 e0       	ldi	r18, 0x00	; 0
 57e:	61 15       	cp	r22, r1
					  NewReportItem.ItemType = HID_REPORT_ITEM_In;
 580:	71 05       	cpc	r23, r1
 582:	c1 f1       	breq	.+112    	; 0x5f4 <Endpoint_Write_Control_PStream_LE+0x9c>
					else if (ItemTypeTag == HID_RI_OUTPUT(0))
 584:	80 91 10 01 	lds	r24, 0x0110
					  NewReportItem.ItemType = HID_REPORT_ITEM_Out;
 588:	88 23       	and	r24, r24
 58a:	09 f4       	brne	.+2      	; 0x58e <Endpoint_Write_Control_PStream_LE+0x36>
 58c:	41 c0       	rjmp	.+130    	; 0x610 <Endpoint_Write_Control_PStream_LE+0xb8>
					else
					  NewReportItem.ItemType = HID_REPORT_ITEM_Feature;
 58e:	85 30       	cpi	r24, 0x05	; 5
 590:	09 f4       	brne	.+2      	; 0x594 <Endpoint_Write_Control_PStream_LE+0x3c>

					NewReportItem.BitOffset = CurrReportIDInfo->ReportSizeBits[NewReportItem.ItemType];
 592:	40 c0       	rjmp	.+128    	; 0x614 <Endpoint_Write_Control_PStream_LE+0xbc>
 594:	80 91 e8 00 	lds	r24, 0x00E8
 598:	83 fd       	sbrc	r24, 3
 59a:	3e c0       	rjmp	.+124    	; 0x618 <Endpoint_Write_Control_PStream_LE+0xc0>
 59c:	80 91 e8 00 	lds	r24, 0x00E8
 5a0:	82 ff       	sbrs	r24, 2
 5a2:	06 c0       	rjmp	.+12     	; 0x5b0 <Endpoint_Write_Control_PStream_LE+0x58>
 5a4:	80 91 e8 00 	lds	r24, 0x00E8
 5a8:	82 ff       	sbrs	r24, 2
 5aa:	27 c0       	rjmp	.+78     	; 0x5fa <Endpoint_Write_Control_PStream_LE+0xa2>

					CurrReportIDInfo->ReportSizeBits[NewReportItem.ItemType] += CurrStateTable->Attributes.BitSize;
 5ac:	80 e0       	ldi	r24, 0x00	; 0
 5ae:	08 95       	ret
 5b0:	80 91 e8 00 	lds	r24, 0x00E8
 5b4:	80 ff       	sbrs	r24, 0
 5b6:	e3 cf       	rjmp	.-58     	; 0x57e <Endpoint_Write_Control_PStream_LE+0x26>
 5b8:	20 91 f3 00 	lds	r18, 0x00F3

					ParserData->LargestReportSizeBits = MAX(ParserData->LargestReportSizeBits, CurrReportIDInfo->ReportSizeBits[NewReportItem.ItemType]);
 5bc:	80 91 f2 00 	lds	r24, 0x00F2
 5c0:	90 e0       	ldi	r25, 0x00	; 0
 5c2:	92 2b       	or	r25, r18
 5c4:	61 15       	cp	r22, r1
 5c6:	71 05       	cpc	r23, r1
 5c8:	59 f0       	breq	.+22     	; 0x5e0 <Endpoint_Write_Control_PStream_LE+0x88>
 5ca:	88 30       	cpi	r24, 0x08	; 8
 5cc:	91 05       	cpc	r25, r1
 5ce:	40 f4       	brcc	.+16     	; 0x5e0 <Endpoint_Write_Control_PStream_LE+0x88>
 5d0:	24 91       	lpm	r18, Z
 5d2:	20 93 f1 00 	sts	0x00F1, r18
 5d6:	31 96       	adiw	r30, 0x01	; 1
 5d8:	61 50       	subi	r22, 0x01	; 1
 5da:	71 09       	sbc	r23, r1
 5dc:	01 96       	adiw	r24, 0x01	; 1
 5de:	f2 cf       	rjmp	.-28     	; 0x5c4 <Endpoint_Write_Control_PStream_LE+0x6c>
 5e0:	21 e0       	ldi	r18, 0x01	; 1
 5e2:	08 97       	sbiw	r24, 0x08	; 8
 5e4:	09 f0       	breq	.+2      	; 0x5e8 <Endpoint_Write_Control_PStream_LE+0x90>
 5e6:	20 e0       	ldi	r18, 0x00	; 0
 5e8:	80 91 e8 00 	lds	r24, 0x00E8
 5ec:	8e 77       	andi	r24, 0x7E	; 126
 5ee:	80 93 e8 00 	sts	0x00E8, r24
 5f2:	c5 cf       	rjmp	.-118    	; 0x57e <Endpoint_Write_Control_PStream_LE+0x26>

					if (ParserData->TotalReportItems == HID_MAX_REPORTITEMS)
 5f4:	21 11       	cpse	r18, r1
 5f6:	c6 cf       	rjmp	.-116    	; 0x584 <Endpoint_Write_Control_PStream_LE+0x2c>
 5f8:	d5 cf       	rjmp	.-86     	; 0x5a4 <Endpoint_Write_Control_PStream_LE+0x4c>
 5fa:	80 91 10 01 	lds	r24, 0x0110
					  return HID_PARSE_InsufficientReportItems;
 5fe:	88 23       	and	r24, r24
 600:	39 f0       	breq	.+14     	; 0x610 <Endpoint_Write_Control_PStream_LE+0xb8>

					memcpy(&ParserData->ReportItems[ParserData->TotalReportItems],
					       &NewReportItem, sizeof(HID_ReportItem_t));

					if (!(ReportItemData & HID_IOF_CONSTANT) && CALLBACK_HIDParser_FilterHIDReportItem(&NewReportItem))
 602:	85 30       	cpi	r24, 0x05	; 5
 604:	39 f0       	breq	.+14     	; 0x614 <Endpoint_Write_Control_PStream_LE+0xbc>
 606:	80 91 e8 00 	lds	r24, 0x00E8
 60a:	83 ff       	sbrs	r24, 3
 60c:	cb cf       	rjmp	.-106    	; 0x5a4 <Endpoint_Write_Control_PStream_LE+0x4c>
 60e:	04 c0       	rjmp	.+8      	; 0x618 <Endpoint_Write_Control_PStream_LE+0xc0>
 610:	82 e0       	ldi	r24, 0x02	; 2
 612:	08 95       	ret
 614:	83 e0       	ldi	r24, 0x03	; 3
 616:	08 95       	ret
 618:	81 e0       	ldi	r24, 0x01	; 1
 61a:	08 95       	ret

0000061c <Endpoint_ConfigureEndpoint_Prv>:
 61c:	98 2f       	mov	r25, r24
 61e:	97 30       	cpi	r25, 0x07	; 7
 620:	58 f5       	brcc	.+86     	; 0x678 <Endpoint_ConfigureEndpoint_Prv+0x5c>
 622:	90 93 e9 00 	sts	0x00E9, r25
 626:	98 17       	cp	r25, r24
 628:	39 f0       	breq	.+14     	; 0x638 <Endpoint_ConfigureEndpoint_Prv+0x1c>
 62a:	70 91 ec 00 	lds	r23, 0x00EC
 62e:	20 91 ed 00 	lds	r18, 0x00ED
 632:	50 91 f0 00 	lds	r21, 0x00F0
 636:	03 c0       	rjmp	.+6      	; 0x63e <Endpoint_ConfigureEndpoint_Prv+0x22>
 638:	24 2f       	mov	r18, r20
 63a:	76 2f       	mov	r23, r22
 63c:	50 e0       	ldi	r21, 0x00	; 0
 63e:	21 ff       	sbrs	r18, 1
 640:	19 c0       	rjmp	.+50     	; 0x674 <Endpoint_ConfigureEndpoint_Prv+0x58>
 642:	30 91 eb 00 	lds	r19, 0x00EB
 646:	3e 7f       	andi	r19, 0xFE	; 254
 648:	30 93 eb 00 	sts	0x00EB, r19
 64c:	30 91 ed 00 	lds	r19, 0x00ED
 650:	3d 7f       	andi	r19, 0xFD	; 253
 652:	30 93 ed 00 	sts	0x00ED, r19
 656:	30 91 eb 00 	lds	r19, 0x00EB
 65a:	31 60       	ori	r19, 0x01	; 1
 65c:	30 93 eb 00 	sts	0x00EB, r19
 660:	70 93 ec 00 	sts	0x00EC, r23
 664:	20 93 ed 00 	sts	0x00ED, r18
 668:	50 93 f0 00 	sts	0x00F0, r21
 66c:	20 91 ee 00 	lds	r18, 0x00EE
 670:	27 ff       	sbrs	r18, 7
 672:	07 c0       	rjmp	.+14     	; 0x682 <Endpoint_ConfigureEndpoint_Prv+0x66>
 674:	9f 5f       	subi	r25, 0xFF	; 255
 676:	d3 cf       	rjmp	.-90     	; 0x61e <Endpoint_ConfigureEndpoint_Prv+0x2>
 678:	8f 70       	andi	r24, 0x0F	; 15
 67a:	80 93 e9 00 	sts	0x00E9, r24
 67e:	81 e0       	ldi	r24, 0x01	; 1
 680:	08 95       	ret
 682:	80 e0       	ldi	r24, 0x00	; 0
 684:	08 95       	ret

00000686 <Endpoint_ConfigureEndpointTable>:
 686:	0f 93       	push	r16
					  ParserData->TotalReportItems++;
 688:	1f 93       	push	r17
 68a:	cf 93       	push	r28
 68c:	df 93       	push	r29
 68e:	06 2f       	mov	r16, r22
 690:	ec 01       	movw	r28, r24

			default:
				break;
		}

		if ((HIDReportItem & HID_RI_TYPE_MASK) == HID_RI_TYPE_MAIN)
 692:	10 e0       	ldi	r17, 0x00	; 0
 694:	10 17       	cp	r17, r16
 696:	71 f1       	breq	.+92     	; 0x6f4 <Endpoint_ConfigureEndpointTable+0x6e>
 698:	98 81       	ld	r25, Y
 69a:	99 23       	and	r25, r25
 69c:	41 f1       	breq	.+80     	; 0x6ee <Endpoint_ConfigureEndpointTable+0x68>
		{
			UsageMinMax.Minimum = 0;
			UsageMinMax.Maximum = 0;
 69e:	2c 81       	ldd	r18, Y+4	; 0x04
 6a0:	e9 81       	ldd	r30, Y+1	; 0x01
 6a2:	fa 81       	ldd	r31, Y+2	; 0x02
				break;
		}

		if ((HIDReportItem & HID_RI_TYPE_MASK) == HID_RI_TYPE_MAIN)
		{
			UsageMinMax.Minimum = 0;
 6a4:	7b 81       	ldd	r23, Y+3	; 0x03
 6a6:	89 2f       	mov	r24, r25
 6a8:	8f 70       	andi	r24, 0x0F	; 15
			UsageMinMax.Maximum = 0;
			UsageListSize       = 0;
 6aa:	87 30       	cpi	r24, 0x07	; 7
 6ac:	10 f0       	brcs	.+4      	; 0x6b2 <Endpoint_ConfigureEndpointTable+0x2c>
 6ae:	80 e0       	ldi	r24, 0x00	; 0
 6b0:	22 c0       	rjmp	.+68     	; 0x6f6 <Endpoint_ConfigureEndpointTable+0x70>
		}
	}

	if (!(ParserData->TotalReportItems))
 6b2:	22 30       	cpi	r18, 0x02	; 2
 6b4:	10 f0       	brcs	.+4      	; 0x6ba <Endpoint_ConfigureEndpointTable+0x34>
 6b6:	56 e0       	ldi	r21, 0x06	; 6
 6b8:	01 c0       	rjmp	.+2      	; 0x6bc <Endpoint_ConfigureEndpointTable+0x36>
	  return HID_PARSE_NoUnfilteredReportItems;
 6ba:	52 e0       	ldi	r21, 0x02	; 2
 6bc:	28 e0       	ldi	r18, 0x08	; 8

		switch (HIDReportItem & (HID_RI_TYPE_MASK | HID_RI_TAG_MASK))
		{
			case HID_RI_PUSH(0):
				if (CurrStateTable == &StateTable[HID_STATETABLE_STACK_DEPTH - 1])
				  return HID_PARSE_HIDStackOverflow;
 6be:	30 e0       	ldi	r19, 0x00	; 0
 6c0:	40 e0       	ldi	r20, 0x00	; 0
				CurrStateTable++;
				break;

			case HID_RI_POP(0):
				if (CurrStateTable == &StateTable[0])
				  return HID_PARSE_HIDStackUnderflow;
 6c2:	2e 17       	cp	r18, r30
 6c4:	3f 07       	cpc	r19, r31
				CurrReportIDInfo->ReportID = CurrStateTable->ReportID;
				break;

			case HID_RI_USAGE(0):
				if (UsageListSize == HID_USAGE_STACK_DEPTH)
				  return HID_PARSE_UsageListOverflow;
 6c6:	20 f4       	brcc	.+8      	; 0x6d0 <Endpoint_ConfigureEndpointTable+0x4a>
 6c8:	4f 5f       	subi	r20, 0xFF	; 255
					CurrCollectionPath = &ParserData->CollectionPaths[1];

					while (CurrCollectionPath->Parent != NULL)
					{
						if (CurrCollectionPath == &ParserData->CollectionPaths[HID_MAX_COLLECTIONS - 1])
						  return HID_PARSE_InsufficientCollectionPaths;
 6ca:	22 0f       	add	r18, r18
 6cc:	33 1f       	adc	r19, r19

				break;

			case HID_RI_END_COLLECTION(0):
				if (CurrCollectionPath == NULL)
				  return HID_PARSE_UnexpectedEndCollection;
 6ce:	f9 cf       	rjmp	.-14     	; 0x6c2 <Endpoint_ConfigureEndpointTable+0x3c>
 6d0:	42 95       	swap	r20
	}

	if (!(ParserData->TotalReportItems))
	  return HID_PARSE_NoUnfilteredReportItems;

	return HID_PARSE_Successful;
 6d2:	40 7f       	andi	r20, 0xF0	; 240
 6d4:	45 2b       	or	r20, r21
					}

					if (CurrReportIDInfo == NULL)
					{
						if (ParserData->TotalDeviceReports == HID_MAX_REPORT_IDS)
						  return HID_PARSE_InsufficientReportIDItems;
 6d6:	69 2f       	mov	r22, r25

	if (!(ParserData->TotalReportItems))
	  return HID_PARSE_NoUnfilteredReportItems;

	return HID_PARSE_Successful;
}
 6d8:	66 1f       	adc	r22, r22
 6da:	66 27       	eor	r22, r22
 6dc:	66 1f       	adc	r22, r22
 6de:	90 e4       	ldi	r25, 0x40	; 64
 6e0:	79 9f       	mul	r23, r25
 6e2:	90 01       	movw	r18, r0
 6e4:	11 24       	eor	r1, r1
 6e6:	62 2b       	or	r22, r18
 6e8:	99 df       	rcall	.-206    	; 0x61c <Endpoint_ConfigureEndpoint_Prv>
 6ea:	88 23       	and	r24, r24
 6ec:	01 f3       	breq	.-64     	; 0x6ae <Endpoint_ConfigureEndpointTable+0x28>
 6ee:	1f 5f       	subi	r17, 0xFF	; 255
 6f0:	25 96       	adiw	r28, 0x05	; 5
 6f2:	d0 cf       	rjmp	.-96     	; 0x694 <Endpoint_ConfigureEndpointTable+0xe>
 6f4:	81 e0       	ldi	r24, 0x01	; 1
 6f6:	df 91       	pop	r29
 6f8:	cf 91       	pop	r28
 6fa:	1f 91       	pop	r17
 6fc:	0f 91       	pop	r16
 6fe:	08 95       	ret

00000700 <Endpoint_ClearStatusStage>:
 700:	80 91 11 01 	lds	r24, 0x0111
 704:	87 fd       	sbrc	r24, 7
 706:	05 c0       	rjmp	.+10     	; 0x712 <Endpoint_ClearStatusStage+0x12>
 708:	80 91 e8 00 	lds	r24, 0x00E8

		Endpoint_ClearOUT();
	}
	else
	{
		while (!(Endpoint_IsINReady()))
 70c:	80 ff       	sbrs	r24, 0
 70e:	0e c0       	rjmp	.+28     	; 0x72c <Endpoint_ClearStatusStage+0x2c>
 710:	12 c0       	rjmp	.+36     	; 0x736 <Endpoint_ClearStatusStage+0x36>
			 *  \return Boolean \c true if current endpoint is has received an OUT packet, \c false otherwise.
			 */
			static inline bool Endpoint_IsOUTReceived(void) ATTR_WARN_UNUSED_RESULT ATTR_ALWAYS_INLINE;
			static inline bool Endpoint_IsOUTReceived(void)
			{
				return ((UEINTX & (1 << RXOUTI)) ? true : false);
 712:	80 91 e8 00 	lds	r24, 0x00E8

void Endpoint_ClearStatusStage(void)
{
	if (USB_ControlRequest.bmRequestType & REQDIR_DEVICETOHOST)
	{
		while (!(Endpoint_IsOUTReceived()))
 716:	82 fd       	sbrc	r24, 2
 718:	05 c0       	rjmp	.+10     	; 0x724 <Endpoint_ClearStatusStage+0x24>
		{
			if (USB_DeviceState == DEVICE_STATE_Unattached)
 71a:	80 91 10 01 	lds	r24, 0x0110
 71e:	81 11       	cpse	r24, r1
 720:	f8 cf       	rjmp	.-16     	; 0x712 <Endpoint_ClearStatusStage+0x12>
 722:	08 95       	ret
			 */
			static inline void Endpoint_ClearOUT(void) ATTR_ALWAYS_INLINE;
			static inline void Endpoint_ClearOUT(void)
			{
				#if !defined(CONTROL_ONLY_DEVICE)
					UEINTX &= ~((1 << RXOUTI) | (1 << FIFOCON));
 724:	80 91 e8 00 	lds	r24, 0x00E8
 728:	8b 77       	andi	r24, 0x7B	; 123
 72a:	08 c0       	rjmp	.+16     	; 0x73c <Endpoint_ClearStatusStage+0x3c>
	}
	else
	{
		while (!(Endpoint_IsINReady()))
		{
			if (USB_DeviceState == DEVICE_STATE_Unattached)
 72c:	80 91 10 01 	lds	r24, 0x0110
 730:	81 11       	cpse	r24, r1
 732:	ea cf       	rjmp	.-44     	; 0x708 <Endpoint_ClearStatusStage+0x8>
 734:	08 95       	ret
			 */
			static inline void Endpoint_ClearIN(void) ATTR_ALWAYS_INLINE;
			static inline void Endpoint_ClearIN(void)
			{
				#if !defined(CONTROL_ONLY_DEVICE)
					UEINTX &= ~((1 << TXINI) | (1 << FIFOCON));
 736:	80 91 e8 00 	lds	r24, 0x00E8
 73a:	8e 77       	andi	r24, 0x7E	; 126
 73c:	80 93 e8 00 	sts	0x00E8, r24
 740:	08 95       	ret

00000742 <Endpoint_WaitUntilReady>:
			 *  \return Current USB frame number from the USB controller.
			 */
			static inline uint16_t USB_Device_GetFrameNumber(void) ATTR_ALWAYS_INLINE ATTR_WARN_UNUSED_RESULT;
			static inline uint16_t USB_Device_GetFrameNumber(void)
			{
				return UDFNUM;
 742:	80 91 e4 00 	lds	r24, 0x00E4
 746:	90 91 e5 00 	lds	r25, 0x00E5
 74a:	45 e6       	ldi	r20, 0x65	; 101
			 *  \return The currently selected endpoint's direction, as a \c ENDPOINT_DIR_* mask.
			 */
			static inline uint8_t Endpoint_GetEndpointDirection(void) ATTR_WARN_UNUSED_RESULT ATTR_ALWAYS_INLINE;
			static inline uint8_t Endpoint_GetEndpointDirection(void)
			{
				return (UECFG0X & (1 << EPDIR)) ? ENDPOINT_DIR_IN : ENDPOINT_DIR_OUT;
 74c:	20 91 ec 00 	lds	r18, 0x00EC
 750:	20 ff       	sbrs	r18, 0
 752:	21 c0       	rjmp	.+66     	; 0x796 <Endpoint_WaitUntilReady+0x54>
			 *  \return Boolean \c true if the current endpoint is ready for an IN packet, \c false otherwise.
			 */
			static inline bool Endpoint_IsINReady(void) ATTR_WARN_UNUSED_RESULT ATTR_ALWAYS_INLINE;
			static inline bool Endpoint_IsINReady(void)
			{
				return ((UEINTX & (1 << TXINI)) ? true : false);
 754:	20 91 e8 00 	lds	r18, 0x00E8

	for (;;)
	{
		if (Endpoint_GetEndpointDirection() == ENDPOINT_DIR_IN)
		{
			if (Endpoint_IsINReady())
 758:	20 fd       	sbrc	r18, 0
 75a:	21 c0       	rjmp	.+66     	; 0x79e <Endpoint_WaitUntilReady+0x5c>
		{
			if (Endpoint_IsOUTReceived())
			  return ENDPOINT_READYWAIT_NoError;
		}

		uint8_t USB_DeviceState_LCL = USB_DeviceState;
 75c:	20 91 10 01 	lds	r18, 0x0110

		if (USB_DeviceState_LCL == DEVICE_STATE_Unattached)
 760:	22 23       	and	r18, r18
 762:	89 f0       	breq	.+34     	; 0x786 <Endpoint_WaitUntilReady+0x44>
		  return ENDPOINT_READYWAIT_DeviceDisconnected;
		else if (USB_DeviceState_LCL == DEVICE_STATE_Suspended)
 764:	25 30       	cpi	r18, 0x05	; 5
 766:	89 f0       	breq	.+34     	; 0x78a <Endpoint_WaitUntilReady+0x48>
			 *  \return Boolean \c true if the currently selected endpoint is stalled, \c false otherwise.
			 */
			static inline bool Endpoint_IsStalled(void) ATTR_WARN_UNUSED_RESULT ATTR_ALWAYS_INLINE;
			static inline bool Endpoint_IsStalled(void)
			{
				return ((UECONX & (1 << STALLRQ)) ? true : false);
 768:	20 91 eb 00 	lds	r18, 0x00EB
		  return ENDPOINT_READYWAIT_BusSuspended;
		else if (Endpoint_IsStalled())
 76c:	25 fd       	sbrc	r18, 5
 76e:	0f c0       	rjmp	.+30     	; 0x78e <Endpoint_WaitUntilReady+0x4c>
 770:	20 91 e4 00 	lds	r18, 0x00E4
 774:	30 91 e5 00 	lds	r19, 0x00E5
		  return ENDPOINT_READYWAIT_EndpointStalled;

		uint16_t CurrentFrameNumber = USB_Device_GetFrameNumber();

		if (CurrentFrameNumber != PreviousFrameNumber)
 778:	28 17       	cp	r18, r24
 77a:	39 07       	cpc	r19, r25
 77c:	39 f3       	breq	.-50     	; 0x74c <Endpoint_WaitUntilReady+0xa>
 77e:	41 50       	subi	r20, 0x01	; 1
		{
			PreviousFrameNumber = CurrentFrameNumber;

			if (!(TimeoutMSRem--))
 780:	41 f0       	breq	.+16     	; 0x792 <Endpoint_WaitUntilReady+0x50>
 782:	c9 01       	movw	r24, r18
 784:	e3 cf       	rjmp	.-58     	; 0x74c <Endpoint_WaitUntilReady+0xa>
		}

		uint8_t USB_DeviceState_LCL = USB_DeviceState;

		if (USB_DeviceState_LCL == DEVICE_STATE_Unattached)
		  return ENDPOINT_READYWAIT_DeviceDisconnected;
 786:	82 e0       	ldi	r24, 0x02	; 2
 788:	08 95       	ret
		else if (USB_DeviceState_LCL == DEVICE_STATE_Suspended)
		  return ENDPOINT_READYWAIT_BusSuspended;
 78a:	83 e0       	ldi	r24, 0x03	; 3
 78c:	08 95       	ret
		else if (Endpoint_IsStalled())
		  return ENDPOINT_READYWAIT_EndpointStalled;
 78e:	81 e0       	ldi	r24, 0x01	; 1
 790:	08 95       	ret
		if (CurrentFrameNumber != PreviousFrameNumber)
		{
			PreviousFrameNumber = CurrentFrameNumber;

			if (!(TimeoutMSRem--))
			  return ENDPOINT_READYWAIT_Timeout;
 792:	84 e0       	ldi	r24, 0x04	; 4
 794:	08 95       	ret
			 *  \return Boolean \c true if current endpoint is has received an OUT packet, \c false otherwise.
			 */
			static inline bool Endpoint_IsOUTReceived(void) ATTR_WARN_UNUSED_RESULT ATTR_ALWAYS_INLINE;
			static inline bool Endpoint_IsOUTReceived(void)
			{
				return ((UEINTX & (1 << RXOUTI)) ? true : false);
 796:	20 91 e8 00 	lds	r18, 0x00E8
			if (Endpoint_IsINReady())
			  return ENDPOINT_READYWAIT_NoError;
		}
		else
		{
			if (Endpoint_IsOUTReceived())
 79a:	22 ff       	sbrs	r18, 2
 79c:	df cf       	rjmp	.-66     	; 0x75c <Endpoint_WaitUntilReady+0x1a>
	for (;;)
	{
		if (Endpoint_GetEndpointDirection() == ENDPOINT_DIR_IN)
		{
			if (Endpoint_IsINReady())
			  return ENDPOINT_READYWAIT_NoError;
 79e:	80 e0       	ldi	r24, 0x00	; 0
 7a0:	08 95       	ret

000007a2 <USB_ResetInterface>:

	USB_IsInitialized = false;
}

void USB_ResetInterface(void)
{
 7a2:	0f 93       	push	r16
 7a4:	1f 93       	push	r17
 7a6:	cf 93       	push	r28
 7a8:	df 93       	push	r29
	#if defined(USB_CAN_BE_BOTH)
	bool UIDModeSelectEnabled = ((UHWCON & (1 << UIDE)) != 0);
	#endif

	USB_INT_DisableAllInterrupts();
 7aa:	4b d0       	rcall	.+150    	; 0x842 <USB_INT_DisableAllInterrupts>
 7ac:	52 d0       	rcall	.+164    	; 0x852 <USB_INT_ClearAllInterrupts>
	USB_INT_ClearAllInterrupts();
 7ae:	c8 ed       	ldi	r28, 0xD8	; 216
 7b0:	d0 e0       	ldi	r29, 0x00	; 0
			}

			static inline void USB_Controller_Reset(void) ATTR_ALWAYS_INLINE;
			static inline void USB_Controller_Reset(void)
			{
				USBCON &= ~(1 << USBE);
 7b2:	88 81       	ld	r24, Y
 7b4:	8f 77       	andi	r24, 0x7F	; 127
 7b6:	88 83       	st	Y, r24
 7b8:	88 81       	ld	r24, Y
 7ba:	80 68       	ori	r24, 0x80	; 128
				USBCON |=  (1 << USBE);
 7bc:	88 83       	st	Y, r24
 7be:	88 81       	ld	r24, Y
 7c0:	8f 7d       	andi	r24, 0xDF	; 223
			}

			static inline void USB_CLK_Unfreeze(void) ATTR_ALWAYS_INLINE;
			static inline void USB_CLK_Unfreeze(void)
			{
				USBCON &= ~(1 << FRZCLK);
 7c2:	88 83       	st	Y, r24
 7c4:	19 bc       	out	0x29, r1	; 41
 7c6:	10 92 10 01 	sts	0x0110, r1
}

#if defined(USB_CAN_BE_DEVICE)
static void USB_Init_Device(void)
{
	USB_DeviceState                 = DEVICE_STATE_Unattached;
 7ca:	10 92 0c 01 	sts	0x010C, r1
	USB_Device_ConfigurationNumber  = 0;
 7ce:	10 92 0e 01 	sts	0x010E, r1

	#if !defined(NO_DEVICE_REMOTE_WAKEUP)
	USB_Device_RemoteWakeupEnabled  = false;
 7d2:	10 92 0d 01 	sts	0x010D, r1
	#endif

	#if !defined(NO_DEVICE_SELF_POWER)
	USB_Device_CurrentlySelfPowered = false;
 7d6:	00 ee       	ldi	r16, 0xE0	; 224
 7d8:	10 e0       	ldi	r17, 0x00	; 0
			}

			static inline void USB_Device_SetFullSpeed(void) ATTR_ALWAYS_INLINE;
			static inline void USB_Device_SetFullSpeed(void)
			{
				UDCON &= ~(1 << LSM);
 7da:	f8 01       	movw	r30, r16
 7dc:	80 81       	ld	r24, Z
 7de:	8b 7f       	andi	r24, 0xFB	; 251
 7e0:	80 83       	st	Z, r24
 7e2:	88 81       	ld	r24, Y
 7e4:	81 60       	ori	r24, 0x01	; 1
			{
				switch (Interrupt)
				{
					#if (defined(USB_SERIES_4_AVR) || defined(USB_SERIES_6_AVR) || defined(USB_SERIES_7_AVR))
					case USB_INT_VBUSTI:
						USBCON |= (1 << VBUSTE);
 7e6:	88 83       	st	Y, r24
 7e8:	42 e0       	ldi	r20, 0x02	; 2
 7ea:	60 e0       	ldi	r22, 0x00	; 0
				uint8_t Number = (Address & ENDPOINT_EPNUM_MASK);

				if (Number >= ENDPOINT_TOTAL_ENDPOINTS)
				  return false;

				return Endpoint_ConfigureEndpoint_Prv(Number,
 7ec:	80 e0       	ldi	r24, 0x00	; 0
 7ee:	16 df       	rcall	.-468    	; 0x61c <Endpoint_ConfigureEndpoint_Prv>
 7f0:	e1 ee       	ldi	r30, 0xE1	; 225
 7f2:	f0 e0       	ldi	r31, 0x00	; 0
 7f4:	80 81       	ld	r24, Z
					#if defined(USB_CAN_BE_DEVICE)
					case USB_INT_WAKEUPI:
						UDINT  &= ~(1 << WAKEUPI);
						break;
					case USB_INT_SUSPI:
						UDINT  &= ~(1 << SUSPI);
 7f6:	8e 7f       	andi	r24, 0xFE	; 254
 7f8:	80 83       	st	Z, r24
 7fa:	e2 ee       	ldi	r30, 0xE2	; 226
 7fc:	f0 e0       	ldi	r31, 0x00	; 0
 7fe:	80 81       	ld	r24, Z
					#if defined(USB_CAN_BE_DEVICE)
					case USB_INT_WAKEUPI:
						UDIEN  |= (1 << WAKEUPE);
						break;
					case USB_INT_SUSPI:
						UDIEN  |= (1 << SUSPE);
 800:	81 60       	ori	r24, 0x01	; 1
 802:	80 83       	st	Z, r24
 804:	80 81       	ld	r24, Z
 806:	88 60       	ori	r24, 0x08	; 8
 808:	80 83       	st	Z, r24
						break;
					case USB_INT_EORSTI:
						UDIEN  |= (1 << EORSTE);
 80a:	f8 01       	movw	r30, r16
 80c:	80 81       	ld	r24, Z
 80e:	8e 7f       	andi	r24, 0xFE	; 254
			 *  register and despite the datasheet making no mention of its requirement in host mode.
			 */
			static inline void USB_Attach(void) ATTR_ALWAYS_INLINE;
			static inline void USB_Attach(void)
			{
				UDCON  &= ~(1 << DETACH);
 810:	80 83       	st	Z, r24
 812:	88 81       	ld	r24, Y
 814:	80 61       	ori	r24, 0x10	; 16
 816:	88 83       	st	Y, r24

			#if defined(USB_SERIES_4_AVR) || defined(USB_SERIES_6_AVR) || defined(USB_SERIES_7_AVR)
			static inline void USB_OTGPAD_On(void) ATTR_ALWAYS_INLINE;
			static inline void USB_OTGPAD_On(void)
			{
				USBCON |=  (1 << OTGPADE);
 818:	df 91       	pop	r29
 81a:	cf 91       	pop	r28
 81c:	1f 91       	pop	r17
	}

	#if (defined(USB_SERIES_4_AVR) || defined(USB_SERIES_6_AVR) || defined(USB_SERIES_7_AVR))
	USB_OTGPAD_On();
	#endif
}
 81e:	0f 91       	pop	r16
 820:	08 95       	ret

00000822 <USB_Init>:
 822:	e8 ed       	ldi	r30, 0xD8	; 216
 824:	f0 e0       	ldi	r31, 0x00	; 0
 826:	80 81       	ld	r24, Z
			}

			static inline void USB_OTGPAD_Off(void) ATTR_ALWAYS_INLINE;
			static inline void USB_OTGPAD_Off(void)
			{
				USBCON &= ~(1 << OTGPADE);
 828:	8f 7e       	andi	r24, 0xEF	; 239
 82a:	80 83       	st	Z, r24

			static inline void USB_REG_On(void) ATTR_ALWAYS_INLINE;
			static inline void USB_REG_On(void)
			{
			#if defined(USB_SERIES_4_AVR) || defined(USB_SERIES_6_AVR) || defined(USB_SERIES_7_AVR)
				UHWCON |=  (1 << UVREGE);
 82c:	e7 ed       	ldi	r30, 0xD7	; 215
 82e:	f0 e0       	ldi	r31, 0x00	; 0
 830:	80 81       	ld	r24, Z
 832:	81 60       	ori	r24, 0x01	; 1
 834:	80 83       	st	Z, r24
	  USB_REG_Off();

	if (!(USB_Options & USB_OPT_MANUAL_PLL))
	{
		#if defined(USB_SERIES_4_AVR)
		PLLFRQ = (1 << PDIV2);
 836:	84 e0       	ldi	r24, 0x04	; 4
 838:	82 bf       	out	0x32, r24	; 50
		UHWCON &= ~(1 << UIDE);
		USB_CurrentMode = Mode;
	}
	#endif

	USB_IsInitialized = true;
 83a:	81 e0       	ldi	r24, 0x01	; 1
 83c:	80 93 0f 01 	sts	0x010F, r24

	USB_ResetInterface();
 840:	b0 cf       	rjmp	.-160    	; 0x7a2 <USB_ResetInterface>

00000842 <USB_INT_DisableAllInterrupts>:
 842:	e8 ed       	ldi	r30, 0xD8	; 216
void USB_INT_DisableAllInterrupts(void)
{
	#if defined(USB_SERIES_6_AVR) || defined(USB_SERIES_7_AVR)
	USBCON &= ~((1 << VBUSTE) | (1 << IDTE));
	#elif defined(USB_SERIES_4_AVR)
	USBCON &= ~(1 << VBUSTE);
 844:	f0 e0       	ldi	r31, 0x00	; 0
 846:	80 81       	ld	r24, Z
 848:	8e 7f       	andi	r24, 0xFE	; 254
 84a:	80 83       	st	Z, r24
	#if defined(USB_CAN_BE_HOST)
	UHIEN   = 0;
	#endif

	#if defined(USB_CAN_BE_DEVICE)
	UDIEN   = 0;
 84c:	10 92 e2 00 	sts	0x00E2, r1
 850:	08 95       	ret

00000852 <USB_INT_ClearAllInterrupts>:
}

void USB_INT_ClearAllInterrupts(void)
{
	#if defined(USB_SERIES_4_AVR) || defined(USB_SERIES_6_AVR) || defined(USB_SERIES_7_AVR)
	USBINT = 0;
 852:	10 92 da 00 	sts	0x00DA, r1
	#if defined(USB_CAN_BE_HOST)
	UHINT  = 0;
	#endif

	#if defined(USB_CAN_BE_DEVICE)
	UDINT  = 0;
 856:	10 92 e1 00 	sts	0x00E1, r1
 85a:	08 95       	ret

0000085c <__vector_10>:
	#endif
}

ISR(USB_GEN_vect, ISR_BLOCK)
{
 85c:	1f 92       	push	r1
 85e:	0f 92       	push	r0
 860:	0f b6       	in	r0, 0x3f	; 63
 862:	0f 92       	push	r0
 864:	11 24       	eor	r1, r1
 866:	2f 93       	push	r18
 868:	3f 93       	push	r19
 86a:	4f 93       	push	r20
 86c:	5f 93       	push	r21
 86e:	6f 93       	push	r22
 870:	7f 93       	push	r23
 872:	8f 93       	push	r24
 874:	9f 93       	push	r25
 876:	af 93       	push	r26
 878:	bf 93       	push	r27
 87a:	ef 93       	push	r30
 87c:	ff 93       	push	r31
					case USB_INT_SUSPI:
						return (UDINT  & (1 << SUSPI));
					case USB_INT_EORSTI:
						return (UDINT  & (1 << EORSTI));
					case USB_INT_SOFI:
						return (UDINT  & (1 << SOFI));
 87e:	80 91 e1 00 	lds	r24, 0x00E1
	#if defined(USB_CAN_BE_DEVICE)
	#if !defined(NO_SOF_EVENTS)
	if (USB_INT_HasOccurred(USB_INT_SOFI) && USB_INT_IsEnabled(USB_INT_SOFI))
 882:	82 ff       	sbrs	r24, 2
 884:	0a c0       	rjmp	.+20     	; 0x89a <__vector_10+0x3e>
					case USB_INT_SUSPI:
						return (UDIEN  & (1 << SUSPE));
					case USB_INT_EORSTI:
						return (UDIEN  & (1 << EORSTE));
					case USB_INT_SOFI:
						return (UDIEN  & (1 << SOFE));
 886:	80 91 e2 00 	lds	r24, 0x00E2
 88a:	82 ff       	sbrs	r24, 2
 88c:	06 c0       	rjmp	.+12     	; 0x89a <__vector_10+0x3e>
						break;
					case USB_INT_EORSTI:
						UDINT  &= ~(1 << EORSTI);
						break;
					case USB_INT_SOFI:
						UDINT  &= ~(1 << SOFI);
 88e:	80 91 e1 00 	lds	r24, 0x00E1
 892:	8b 7f       	andi	r24, 0xFB	; 251
 894:	80 93 e1 00 	sts	0x00E1, r24
	{
		USB_INT_Clear(USB_INT_SOFI);

		EVENT_USB_Device_StartOfFrame();
 898:	f8 d1       	rcall	.+1008   	; 0xc8a <USB_Event_Stub>
 89a:	80 91 da 00 	lds	r24, 0x00DA
			{
				switch (Interrupt)
				{
					#if (defined(USB_SERIES_4_AVR) || defined(USB_SERIES_6_AVR) || defined(USB_SERIES_7_AVR))
					case USB_INT_VBUSTI:
						return (USBINT & (1 << VBUSTI));
 89e:	80 ff       	sbrs	r24, 0
	}
	#endif

	#if defined(USB_SERIES_4_AVR) || defined(USB_SERIES_6_AVR) || defined(USB_SERIES_7_AVR)
	if (USB_INT_HasOccurred(USB_INT_VBUSTI) && USB_INT_IsEnabled(USB_INT_VBUSTI))
 8a0:	1d c0       	rjmp	.+58     	; 0x8dc <__vector_10+0x80>
 8a2:	80 91 d8 00 	lds	r24, 0x00D8
			{
				switch (Interrupt)
				{
					#if (defined(USB_SERIES_4_AVR) || defined(USB_SERIES_6_AVR) || defined(USB_SERIES_7_AVR))
					case USB_INT_VBUSTI:
						return (USBCON & (1 << VBUSTE));
 8a6:	80 ff       	sbrs	r24, 0
 8a8:	19 c0       	rjmp	.+50     	; 0x8dc <__vector_10+0x80>
 8aa:	80 91 da 00 	lds	r24, 0x00DA
			{
				switch (Interrupt)
				{
					#if (defined(USB_SERIES_4_AVR) || defined(USB_SERIES_6_AVR) || defined(USB_SERIES_7_AVR))
					case USB_INT_VBUSTI:
						USBINT &= ~(1 << VBUSTI);
 8ae:	8e 7f       	andi	r24, 0xFE	; 254
 8b0:	80 93 da 00 	sts	0x00DA, r24
 8b4:	80 91 d9 00 	lds	r24, 0x00D9
				 *  \return Boolean \c true if the VBUS line is currently detecting power from a host, \c false otherwise.
				 */
				static inline bool USB_VBUS_GetStatus(void) ATTR_WARN_UNUSED_RESULT ATTR_ALWAYS_INLINE;
				static inline bool USB_VBUS_GetStatus(void)
				{
					return ((USBSTA & (1 << VBUS)) ? true : false);
 8b8:	80 ff       	sbrs	r24, 0
	{
		USB_INT_Clear(USB_INT_VBUSTI);

		if (USB_VBUS_GetStatus())
 8ba:	0c c0       	rjmp	.+24     	; 0x8d4 <__vector_10+0x78>
 8bc:	80 e1       	ldi	r24, 0x10	; 16

		/* Inline Functions: */
			static inline void USB_PLL_On(void) ATTR_ALWAYS_INLINE;
			static inline void USB_PLL_On(void)
			{
				PLLCSR = USB_PLL_PSC;
 8be:	89 bd       	out	0x29, r24	; 41
 8c0:	82 e1       	ldi	r24, 0x12	; 18
				PLLCSR = (USB_PLL_PSC | (1 << PLLE));
 8c2:	89 bd       	out	0x29, r24	; 41
 8c4:	09 b4       	in	r0, 0x29	; 41
		{
			if (!(USB_Options & USB_OPT_MANUAL_PLL))
			{
				USB_PLL_On();
				while (!(USB_PLL_IsReady()));
 8c6:	00 fe       	sbrs	r0, 0
 8c8:	fd cf       	rjmp	.-6      	; 0x8c4 <__vector_10+0x68>
 8ca:	81 e0       	ldi	r24, 0x01	; 1
			}

			USB_DeviceState = DEVICE_STATE_Powered;
 8cc:	80 93 10 01 	sts	0x0110, r24
 8d0:	1a dd       	rcall	.-1484   	; 0x306 <EVENT_USB_Device_Connect>
			EVENT_USB_Device_Connect();
 8d2:	04 c0       	rjmp	.+8      	; 0x8dc <__vector_10+0x80>
 8d4:	19 bc       	out	0x29, r1	; 41
 8d6:	10 92 10 01 	sts	0x0110, r1
		else
		{
			if (!(USB_Options & USB_OPT_MANUAL_PLL))
			  USB_PLL_Off();

			USB_DeviceState = DEVICE_STATE_Unattached;
 8da:	16 dd       	rcall	.-1492   	; 0x308 <EVENT_USB_Device_Disconnect>
 8dc:	80 91 e1 00 	lds	r24, 0x00E1
			EVENT_USB_Device_Disconnect();
 8e0:	80 ff       	sbrs	r24, 0
					#endif
					#if defined(USB_CAN_BE_DEVICE)
					case USB_INT_WAKEUPI:
						return (UDINT  & (1 << WAKEUPI));
					case USB_INT_SUSPI:
						return (UDINT  & (1 << SUSPI));
 8e2:	18 c0       	rjmp	.+48     	; 0x914 <__vector_10+0xb8>
 8e4:	80 91 e2 00 	lds	r24, 0x00E2
		}
	}
	#endif

	if (USB_INT_HasOccurred(USB_INT_SUSPI) && USB_INT_IsEnabled(USB_INT_SUSPI))
 8e8:	80 ff       	sbrs	r24, 0
					#endif
					#if defined(USB_CAN_BE_DEVICE)
					case USB_INT_WAKEUPI:
						return (UDIEN  & (1 << WAKEUPE));
					case USB_INT_SUSPI:
						return (UDIEN  & (1 << SUSPE));
 8ea:	14 c0       	rjmp	.+40     	; 0x914 <__vector_10+0xb8>
 8ec:	80 91 e2 00 	lds	r24, 0x00E2
 8f0:	8e 7f       	andi	r24, 0xFE	; 254
					#if defined(USB_CAN_BE_DEVICE)
					case USB_INT_WAKEUPI:
						UDIEN  &= ~(1 << WAKEUPE);
						break;
					case USB_INT_SUSPI:
						UDIEN  &= ~(1 << SUSPE);
 8f2:	80 93 e2 00 	sts	0x00E2, r24
 8f6:	80 91 e2 00 	lds	r24, 0x00E2
 8fa:	80 61       	ori	r24, 0x10	; 16
						USBCON |= (1 << IDTE);
						break;
					#endif
					#if defined(USB_CAN_BE_DEVICE)
					case USB_INT_WAKEUPI:
						UDIEN  |= (1 << WAKEUPE);
 8fc:	80 93 e2 00 	sts	0x00E2, r24
 900:	80 91 d8 00 	lds	r24, 0x00D8
 904:	80 62       	ori	r24, 0x20	; 32
			#endif

			static inline void USB_CLK_Freeze(void) ATTR_ALWAYS_INLINE;
			static inline void USB_CLK_Freeze(void)
			{
				USBCON |=  (1 << FRZCLK);
 906:	80 93 d8 00 	sts	0x00D8, r24
 90a:	19 bc       	out	0x29, r1	; 41
 90c:	85 e0       	ldi	r24, 0x05	; 5
 90e:	80 93 10 01 	sts	0x0110, r24

		#if defined(USB_SERIES_2_AVR) && !defined(NO_LIMITED_CONTROLLER_CONNECT)
		USB_DeviceState = DEVICE_STATE_Unattached;
		EVENT_USB_Device_Disconnect();
		#else
		USB_DeviceState = DEVICE_STATE_Suspended;
 912:	bb d1       	rcall	.+886    	; 0xc8a <USB_Event_Stub>
 914:	80 91 e1 00 	lds	r24, 0x00E1
		EVENT_USB_Device_Suspend();
 918:	84 ff       	sbrs	r24, 4
 91a:	2f c0       	rjmp	.+94     	; 0x97a <__vector_10+0x11e>
					case USB_INT_IDTI:
						return (USBINT & (1 << IDTI));
					#endif
					#if defined(USB_CAN_BE_DEVICE)
					case USB_INT_WAKEUPI:
						return (UDINT  & (1 << WAKEUPI));
 91c:	80 91 e2 00 	lds	r24, 0x00E2
		#endif
	}

	if (USB_INT_HasOccurred(USB_INT_WAKEUPI) && USB_INT_IsEnabled(USB_INT_WAKEUPI))
 920:	84 ff       	sbrs	r24, 4
 922:	2b c0       	rjmp	.+86     	; 0x97a <__vector_10+0x11e>
					case USB_INT_IDTI:
						return (USBCON & (1 << IDTE));
					#endif
					#if defined(USB_CAN_BE_DEVICE)
					case USB_INT_WAKEUPI:
						return (UDIEN  & (1 << WAKEUPE));
 924:	80 e1       	ldi	r24, 0x10	; 16
 926:	89 bd       	out	0x29, r24	; 41
 928:	82 e1       	ldi	r24, 0x12	; 18
 92a:	89 bd       	out	0x29, r24	; 41

		/* Inline Functions: */
			static inline void USB_PLL_On(void) ATTR_ALWAYS_INLINE;
			static inline void USB_PLL_On(void)
			{
				PLLCSR = USB_PLL_PSC;
 92c:	09 b4       	in	r0, 0x29	; 41
 92e:	00 fe       	sbrs	r0, 0
				PLLCSR = (USB_PLL_PSC | (1 << PLLE));
 930:	fd cf       	rjmp	.-6      	; 0x92c <__vector_10+0xd0>
 932:	80 91 d8 00 	lds	r24, 0x00D8
	{
		if (!(USB_Options & USB_OPT_MANUAL_PLL))
		{
			USB_PLL_On();
			while (!(USB_PLL_IsReady()));
 936:	8f 7d       	andi	r24, 0xDF	; 223
 938:	80 93 d8 00 	sts	0x00D8, r24
			}

			static inline void USB_CLK_Unfreeze(void) ATTR_ALWAYS_INLINE;
			static inline void USB_CLK_Unfreeze(void)
			{
				USBCON &= ~(1 << FRZCLK);
 93c:	80 91 e1 00 	lds	r24, 0x00E1
 940:	8f 7e       	andi	r24, 0xEF	; 239
 942:	80 93 e1 00 	sts	0x00E1, r24
						USBINT &= ~(1 << IDTI);
						break;
					#endif
					#if defined(USB_CAN_BE_DEVICE)
					case USB_INT_WAKEUPI:
						UDINT  &= ~(1 << WAKEUPI);
 946:	80 91 e2 00 	lds	r24, 0x00E2
 94a:	8f 7e       	andi	r24, 0xEF	; 239
 94c:	80 93 e2 00 	sts	0x00E2, r24
						USBCON &= ~(1 << IDTE);
						break;
					#endif
					#if defined(USB_CAN_BE_DEVICE)
					case USB_INT_WAKEUPI:
						UDIEN  &= ~(1 << WAKEUPE);
 950:	80 91 e2 00 	lds	r24, 0x00E2
 954:	81 60       	ori	r24, 0x01	; 1
 956:	80 93 e2 00 	sts	0x00E2, r24
					#if defined(USB_CAN_BE_DEVICE)
					case USB_INT_WAKEUPI:
						UDIEN  |= (1 << WAKEUPE);
						break;
					case USB_INT_SUSPI:
						UDIEN  |= (1 << SUSPE);
 95a:	80 91 0c 01 	lds	r24, 0x010C
 95e:	88 23       	and	r24, r24
 960:	11 f0       	breq	.+4      	; 0x966 <__vector_10+0x10a>
		USB_INT_Clear(USB_INT_WAKEUPI);

		USB_INT_Disable(USB_INT_WAKEUPI);
		USB_INT_Enable(USB_INT_SUSPI);

		if (USB_Device_ConfigurationNumber)
 962:	84 e0       	ldi	r24, 0x04	; 4
 964:	07 c0       	rjmp	.+14     	; 0x974 <__vector_10+0x118>
 966:	80 91 e3 00 	lds	r24, 0x00E3
		  USB_DeviceState = DEVICE_STATE_Configured;
 96a:	87 ff       	sbrs	r24, 7
 96c:	02 c0       	rjmp	.+4      	; 0x972 <__vector_10+0x116>
			}

			static inline bool USB_Device_IsAddressSet(void) ATTR_ALWAYS_INLINE ATTR_WARN_UNUSED_RESULT;
			static inline bool USB_Device_IsAddressSet(void)
			{
				return (UDADDR & (1 << ADDEN));
 96e:	83 e0       	ldi	r24, 0x03	; 3
 970:	01 c0       	rjmp	.+2      	; 0x974 <__vector_10+0x118>
		else
		  USB_DeviceState = (USB_Device_IsAddressSet()) ? DEVICE_STATE_Addressed : DEVICE_STATE_Powered;
 972:	81 e0       	ldi	r24, 0x01	; 1
 974:	80 93 10 01 	sts	0x0110, r24
 978:	88 d1       	rcall	.+784    	; 0xc8a <USB_Event_Stub>
 97a:	80 91 e1 00 	lds	r24, 0x00E1
 97e:	83 ff       	sbrs	r24, 3

		#if defined(USB_SERIES_2_AVR) && !defined(NO_LIMITED_CONTROLLER_CONNECT)
		EVENT_USB_Device_Connect();
		#else
		EVENT_USB_Device_WakeUp();
 980:	22 c0       	rjmp	.+68     	; 0x9c6 <__vector_10+0x16a>
 982:	80 91 e2 00 	lds	r24, 0x00E2
					case USB_INT_WAKEUPI:
						return (UDINT  & (1 << WAKEUPI));
					case USB_INT_SUSPI:
						return (UDINT  & (1 << SUSPI));
					case USB_INT_EORSTI:
						return (UDINT  & (1 << EORSTI));
 986:	83 ff       	sbrs	r24, 3
		#endif
	}

	if (USB_INT_HasOccurred(USB_INT_EORSTI) && USB_INT_IsEnabled(USB_INT_EORSTI))
 988:	1e c0       	rjmp	.+60     	; 0x9c6 <__vector_10+0x16a>
 98a:	80 91 e1 00 	lds	r24, 0x00E1
					case USB_INT_WAKEUPI:
						return (UDIEN  & (1 << WAKEUPE));
					case USB_INT_SUSPI:
						return (UDIEN  & (1 << SUSPE));
					case USB_INT_EORSTI:
						return (UDIEN  & (1 << EORSTE));
 98e:	87 7f       	andi	r24, 0xF7	; 247
 990:	80 93 e1 00 	sts	0x00E1, r24
						break;
					case USB_INT_SUSPI:
						UDINT  &= ~(1 << SUSPI);
						break;
					case USB_INT_EORSTI:
						UDINT  &= ~(1 << EORSTI);
 994:	82 e0       	ldi	r24, 0x02	; 2
 996:	80 93 10 01 	sts	0x0110, r24
 99a:	10 92 0c 01 	sts	0x010C, r1
	{
		USB_INT_Clear(USB_INT_EORSTI);

		USB_DeviceState                = DEVICE_STATE_Default;
 99e:	80 91 e1 00 	lds	r24, 0x00E1
 9a2:	8e 7f       	andi	r24, 0xFE	; 254
		USB_Device_ConfigurationNumber = 0;
 9a4:	80 93 e1 00 	sts	0x00E1, r24
					#if defined(USB_CAN_BE_DEVICE)
					case USB_INT_WAKEUPI:
						UDINT  &= ~(1 << WAKEUPI);
						break;
					case USB_INT_SUSPI:
						UDINT  &= ~(1 << SUSPI);
 9a8:	80 91 e2 00 	lds	r24, 0x00E2
 9ac:	8e 7f       	andi	r24, 0xFE	; 254
 9ae:	80 93 e2 00 	sts	0x00E2, r24
					#if defined(USB_CAN_BE_DEVICE)
					case USB_INT_WAKEUPI:
						UDIEN  &= ~(1 << WAKEUPE);
						break;
					case USB_INT_SUSPI:
						UDIEN  &= ~(1 << SUSPE);
 9b2:	80 91 e2 00 	lds	r24, 0x00E2
 9b6:	80 61       	ori	r24, 0x10	; 16
 9b8:	80 93 e2 00 	sts	0x00E2, r24
						USBCON |= (1 << IDTE);
						break;
					#endif
					#if defined(USB_CAN_BE_DEVICE)
					case USB_INT_WAKEUPI:
						UDIEN  |= (1 << WAKEUPE);
 9bc:	42 e0       	ldi	r20, 0x02	; 2
 9be:	60 e0       	ldi	r22, 0x00	; 0
 9c0:	80 e0       	ldi	r24, 0x00	; 0
 9c2:	2c de       	rcall	.-936    	; 0x61c <Endpoint_ConfigureEndpoint_Prv>
 9c4:	62 d1       	rcall	.+708    	; 0xc8a <USB_Event_Stub>
				uint8_t Number = (Address & ENDPOINT_EPNUM_MASK);

				if (Number >= ENDPOINT_TOTAL_ENDPOINTS)
				  return false;

				return Endpoint_ConfigureEndpoint_Prv(Number,
 9c6:	ff 91       	pop	r31
 9c8:	ef 91       	pop	r30
 9ca:	bf 91       	pop	r27
 9cc:	af 91       	pop	r26
 9ce:	9f 91       	pop	r25

		#if defined(INTERRUPT_CONTROL_ENDPOINT)
		USB_INT_Enable(USB_INT_RXSTPI);
		#endif

		EVENT_USB_Device_Reset();
 9d0:	8f 91       	pop	r24
 9d2:	7f 91       	pop	r23
		USB_ResetInterface();

		EVENT_USB_UIDChange();
	}
	#endif
}
 9d4:	6f 91       	pop	r22
 9d6:	5f 91       	pop	r21
 9d8:	4f 91       	pop	r20
 9da:	3f 91       	pop	r19
 9dc:	2f 91       	pop	r18
 9de:	0f 90       	pop	r0
 9e0:	0f be       	out	0x3f, r0	; 63
 9e2:	0f 90       	pop	r0
 9e4:	1f 90       	pop	r1
 9e6:	18 95       	reti

000009e8 <USB_Device_ProcessControlRequest>:
 9e8:	1f 93       	push	r17
 9ea:	cf 93       	push	r28
 9ec:	df 93       	push	r29
 9ee:	cd b7       	in	r28, 0x3d	; 61
 9f0:	de b7       	in	r29, 0x3e	; 62
 9f2:	aa 97       	sbiw	r28, 0x2a	; 42
 9f4:	0f b6       	in	r0, 0x3f	; 63
#if !defined(NO_DEVICE_REMOTE_WAKEUP)
bool    USB_Device_RemoteWakeupEnabled;
#endif

void USB_Device_ProcessControlRequest(void)
{
 9f6:	f8 94       	cli
 9f8:	de bf       	out	0x3e, r29	; 62
 9fa:	0f be       	out	0x3f, r0	; 63
 9fc:	cd bf       	out	0x3d, r28	; 61
 9fe:	e1 e1       	ldi	r30, 0x11	; 17
 a00:	f1 e0       	ldi	r31, 0x01	; 1
			 *  \return Next byte in the currently selected endpoint's FIFO buffer.
			 */
			static inline uint8_t Endpoint_Read_8(void) ATTR_WARN_UNUSED_RESULT ATTR_ALWAYS_INLINE;
			static inline uint8_t Endpoint_Read_8(void)
			{
				return UEDATX;
 a02:	80 91 f1 00 	lds	r24, 0x00F1
	USB_ControlRequest.wLength       = Endpoint_Read_16_LE();
	#else
	uint8_t* RequestHeader = (uint8_t*)&USB_ControlRequest;

	for (uint8_t RequestHeaderByte = 0; RequestHeaderByte < sizeof(USB_Request_Header_t); RequestHeaderByte++)
	  *(RequestHeader++) = Endpoint_Read_8();
 a06:	81 93       	st	Z+, r24
	USB_ControlRequest.wIndex        = Endpoint_Read_16_LE();
	USB_ControlRequest.wLength       = Endpoint_Read_16_LE();
	#else
	uint8_t* RequestHeader = (uint8_t*)&USB_ControlRequest;

	for (uint8_t RequestHeaderByte = 0; RequestHeaderByte < sizeof(USB_Request_Header_t); RequestHeaderByte++)
 a08:	21 e0       	ldi	r18, 0x01	; 1
 a0a:	e9 31       	cpi	r30, 0x19	; 25
 a0c:	f2 07       	cpc	r31, r18
 a0e:	c9 f7       	brne	.-14     	; 0xa02 <USB_Device_ProcessControlRequest+0x1a>
	  *(RequestHeader++) = Endpoint_Read_8();
	#endif

	EVENT_USB_Device_ControlRequest();
 a10:	7f dc       	rcall	.-1794   	; 0x310 <EVENT_USB_Device_ControlRequest>
 a12:	80 91 e8 00 	lds	r24, 0x00E8
			 *  \return Boolean \c true if the selected endpoint has received a SETUP packet, \c false otherwise.
			 */
			static inline bool Endpoint_IsSETUPReceived(void) ATTR_WARN_UNUSED_RESULT ATTR_ALWAYS_INLINE;
			static inline bool Endpoint_IsSETUPReceived(void)
			{
				return ((UEINTX & (1 << RXSTPI)) ? true : false);
 a16:	83 ff       	sbrs	r24, 3

	if (Endpoint_IsSETUPReceived())
 a18:	20 c1       	rjmp	.+576    	; 0xc5a <__stack+0x15b>
 a1a:	90 91 11 01 	lds	r25, 0x0111
	{
		uint8_t bmRequestType = USB_ControlRequest.bmRequestType;
 a1e:	80 91 12 01 	lds	r24, 0x0112

		switch (USB_ControlRequest.bRequest)
 a22:	85 30       	cpi	r24, 0x05	; 5
 a24:	09 f4       	brne	.+2      	; 0xa28 <USB_Device_ProcessControlRequest+0x40>
 a26:	77 c0       	rjmp	.+238    	; 0xb16 <__stack+0x17>
 a28:	30 f4       	brcc	.+12     	; 0xa36 <USB_Device_ProcessControlRequest+0x4e>
 a2a:	81 30       	cpi	r24, 0x01	; 1
 a2c:	81 f1       	breq	.+96     	; 0xa8e <USB_Device_ProcessControlRequest+0xa6>
 a2e:	68 f0       	brcs	.+26     	; 0xa4a <USB_Device_ProcessControlRequest+0x62>
 a30:	83 30       	cpi	r24, 0x03	; 3
 a32:	69 f1       	breq	.+90     	; 0xa8e <USB_Device_ProcessControlRequest+0xa6>
 a34:	12 c1       	rjmp	.+548    	; 0xc5a <__stack+0x15b>
 a36:	88 30       	cpi	r24, 0x08	; 8
 a38:	09 f4       	brne	.+2      	; 0xa3c <USB_Device_ProcessControlRequest+0x54>
 a3a:	e1 c0       	rjmp	.+450    	; 0xbfe <__stack+0xff>
 a3c:	89 30       	cpi	r24, 0x09	; 9
 a3e:	09 f4       	brne	.+2      	; 0xa42 <USB_Device_ProcessControlRequest+0x5a>
 a40:	f0 c0       	rjmp	.+480    	; 0xc22 <__stack+0x123>
 a42:	86 30       	cpi	r24, 0x06	; 6
 a44:	09 f0       	breq	.+2      	; 0xa48 <USB_Device_ProcessControlRequest+0x60>
 a46:	09 c1       	rjmp	.+530    	; 0xc5a <__stack+0x15b>
 a48:	88 c0       	rjmp	.+272    	; 0xb5a <__stack+0x5b>
 a4a:	90 38       	cpi	r25, 0x80	; 128
		{
			case REQ_GetStatus:
				if ((bmRequestType == (REQDIR_DEVICETOHOST | REQTYPE_STANDARD | REQREC_DEVICE)) ||
 a4c:	81 f0       	breq	.+32     	; 0xa6e <USB_Device_ProcessControlRequest+0x86>
 a4e:	92 38       	cpi	r25, 0x82	; 130
 a50:	09 f0       	breq	.+2      	; 0xa54 <USB_Device_ProcessControlRequest+0x6c>
 a52:	03 c1       	rjmp	.+518    	; 0xc5a <__stack+0x15b>
 a54:	80 91 15 01 	lds	r24, 0x0115
			 */
			static inline void Endpoint_SelectEndpoint(const uint8_t Address) ATTR_ALWAYS_INLINE;
			static inline void Endpoint_SelectEndpoint(const uint8_t Address)
			{
				#if !defined(CONTROL_ONLY_DEVICE)
					UENUM = (Address & ENDPOINT_EPNUM_MASK);
 a58:	8f 70       	andi	r24, 0x0F	; 15
 a5a:	80 93 e9 00 	sts	0x00E9, r24
 a5e:	80 91 eb 00 	lds	r24, 0x00EB
			 *  \return Boolean \c true if the currently selected endpoint is stalled, \c false otherwise.
			 */
			static inline bool Endpoint_IsStalled(void) ATTR_WARN_UNUSED_RESULT ATTR_ALWAYS_INLINE;
			static inline bool Endpoint_IsStalled(void)
			{
				return ((UECONX & (1 << STALLRQ)) ? true : false);
 a62:	85 fb       	bst	r24, 5
 a64:	88 27       	eor	r24, r24
 a66:	80 f9       	bld	r24, 0
 a68:	10 92 e9 00 	sts	0x00E9, r1
			 */
			static inline void Endpoint_SelectEndpoint(const uint8_t Address) ATTR_ALWAYS_INLINE;
			static inline void Endpoint_SelectEndpoint(const uint8_t Address)
			{
				#if !defined(CONTROL_ONLY_DEVICE)
					UENUM = (Address & ENDPOINT_EPNUM_MASK);
 a6c:	06 c0       	rjmp	.+12     	; 0xa7a <USB_Device_ProcessControlRequest+0x92>
 a6e:	80 91 0d 01 	lds	r24, 0x010D
	Endpoint_ClearOUT();
}

static void USB_Device_GetStatus(void)
{
	uint8_t CurrentStatus = 0;
 a72:	90 91 0e 01 	lds	r25, 0x010E
			if (USB_Device_CurrentlySelfPowered)
			  CurrentStatus |= FEATURE_SELFPOWERED_ENABLED;
			#endif

			#if !defined(NO_DEVICE_REMOTE_WAKEUP)
			if (USB_Device_RemoteWakeupEnabled)
 a76:	91 11       	cpse	r25, r1
 a78:	82 60       	ori	r24, 0x02	; 2
			  CurrentStatus |= FEATURE_REMOTE_WAKEUP_ENABLED;
 a7a:	90 91 e8 00 	lds	r25, 0x00E8
			 *  \note This is not applicable for non CONTROL type endpoints.
			 */
			static inline void Endpoint_ClearSETUP(void) ATTR_ALWAYS_INLINE;
			static inline void Endpoint_ClearSETUP(void)
			{
				UEINTX &= ~(1 << RXSTPI);
 a7e:	97 7f       	andi	r25, 0xF7	; 247
 a80:	90 93 e8 00 	sts	0x00E8, r25
 a84:	80 93 f1 00 	sts	0x00F1, r24
			 *  \param[in] Data  Data to write to the currently selected endpoint's FIFO buffer.
			 */
			static inline void Endpoint_Write_16_LE(const uint16_t Data) ATTR_ALWAYS_INLINE;
			static inline void Endpoint_Write_16_LE(const uint16_t Data)
			{
				UEDATX = (Data & 0xFF);
 a88:	10 92 f1 00 	sts	0x00F1, r1
				UEDATX = (Data >> 8);
 a8c:	c3 c0       	rjmp	.+390    	; 0xc14 <__stack+0x115>
 a8e:	29 2f       	mov	r18, r25
				}

				break;
			case REQ_ClearFeature:
			case REQ_SetFeature:
				if ((bmRequestType == (REQDIR_HOSTTODEVICE | REQTYPE_STANDARD | REQREC_DEVICE)) ||
 a90:	2d 7f       	andi	r18, 0xFD	; 253
 a92:	09 f0       	breq	.+2      	; 0xa96 <USB_Device_ProcessControlRequest+0xae>
 a94:	e2 c0       	rjmp	.+452    	; 0xc5a <__stack+0x15b>
 a96:	99 23       	and	r25, r25
	Endpoint_ClearStatusStage();
}

static void USB_Device_ClearSetFeature(void)
{
	switch (USB_ControlRequest.bmRequestType & CONTROL_REQTYPE_RECIPIENT)
 a98:	19 f0       	breq	.+6      	; 0xaa0 <USB_Device_ProcessControlRequest+0xb8>
 a9a:	92 30       	cpi	r25, 0x02	; 2
 a9c:	61 f0       	breq	.+24     	; 0xab6 <USB_Device_ProcessControlRequest+0xce>
 a9e:	dd c0       	rjmp	.+442    	; 0xc5a <__stack+0x15b>
 aa0:	90 91 13 01 	lds	r25, 0x0113
	{
		#if !defined(NO_DEVICE_REMOTE_WAKEUP)
		case REQREC_DEVICE:
			if ((uint8_t)USB_ControlRequest.wValue == FEATURE_SEL_DeviceRemoteWakeup)
 aa4:	91 30       	cpi	r25, 0x01	; 1
 aa6:	09 f0       	breq	.+2      	; 0xaaa <USB_Device_ProcessControlRequest+0xc2>
 aa8:	d8 c0       	rjmp	.+432    	; 0xc5a <__stack+0x15b>
 aaa:	83 30       	cpi	r24, 0x03	; 3
			  USB_Device_RemoteWakeupEnabled = (USB_ControlRequest.bRequest == REQ_SetFeature);
 aac:	09 f0       	breq	.+2      	; 0xab0 <USB_Device_ProcessControlRequest+0xc8>
 aae:	90 e0       	ldi	r25, 0x00	; 0
 ab0:	90 93 0e 01 	sts	0x010E, r25
 ab4:	2a c0       	rjmp	.+84     	; 0xb0a <__stack+0xb>
 ab6:	90 91 13 01 	lds	r25, 0x0113

			break;
		#endif
		#if !defined(CONTROL_ONLY_DEVICE)
		case REQREC_ENDPOINT:
			if ((uint8_t)USB_ControlRequest.wValue == FEATURE_SEL_EndpointHalt)
 aba:	91 11       	cpse	r25, r1
 abc:	26 c0       	rjmp	.+76     	; 0xb0a <__stack+0xb>
 abe:	20 91 15 01 	lds	r18, 0x0115
			{
				uint8_t EndpointIndex = ((uint8_t)USB_ControlRequest.wIndex & ENDPOINT_EPNUM_MASK);
 ac2:	2f 70       	andi	r18, 0x0F	; 15
 ac4:	09 f4       	brne	.+2      	; 0xac8 <USB_Device_ProcessControlRequest+0xe0>

				if (EndpointIndex == ENDPOINT_CONTROLEP)
 ac6:	c9 c0       	rjmp	.+402    	; 0xc5a <__stack+0x15b>
 ac8:	20 93 e9 00 	sts	0x00E9, r18
			 */
			static inline void Endpoint_SelectEndpoint(const uint8_t Address) ATTR_ALWAYS_INLINE;
			static inline void Endpoint_SelectEndpoint(const uint8_t Address)
			{
				#if !defined(CONTROL_ONLY_DEVICE)
					UENUM = (Address & ENDPOINT_EPNUM_MASK);
 acc:	90 91 eb 00 	lds	r25, 0x00EB
			 * \return Boolean \c true if the currently selected endpoint is enabled, \c false otherwise.
			 */
			static inline bool Endpoint_IsEnabled(void) ATTR_WARN_UNUSED_RESULT ATTR_ALWAYS_INLINE;
			static inline bool Endpoint_IsEnabled(void)
			{
				return ((UECONX & (1 << EPEN)) ? true : false);
 ad0:	90 ff       	sbrs	r25, 0
				  return;

				Endpoint_SelectEndpoint(EndpointIndex);

				if (Endpoint_IsEnabled())
 ad2:	1b c0       	rjmp	.+54     	; 0xb0a <__stack+0xb>
 ad4:	83 30       	cpi	r24, 0x03	; 3
				{
					if (USB_ControlRequest.bRequest == REQ_SetFeature)
 ad6:	21 f4       	brne	.+8      	; 0xae0 <USB_Device_ProcessControlRequest+0xf8>
 ad8:	80 91 eb 00 	lds	r24, 0x00EB
			 *  \ingroup Group_EndpointPacketManagement_AVR8
			 */
			static inline void Endpoint_StallTransaction(void) ATTR_ALWAYS_INLINE;
			static inline void Endpoint_StallTransaction(void)
			{
				UECONX |= (1 << STALLRQ);
 adc:	80 62       	ori	r24, 0x20	; 32
 ade:	13 c0       	rjmp	.+38     	; 0xb06 <__stack+0x7>
 ae0:	80 91 eb 00 	lds	r24, 0x00EB
			 *  \ingroup Group_EndpointPacketManagement_AVR8
			 */
			static inline void Endpoint_ClearStall(void) ATTR_ALWAYS_INLINE;
			static inline void Endpoint_ClearStall(void)
			{
				UECONX |= (1 << STALLRQC);
 ae4:	80 61       	ori	r24, 0x10	; 16
 ae6:	80 93 eb 00 	sts	0x00EB, r24
 aea:	81 e0       	ldi	r24, 0x01	; 1
			 *  \param[in] Address  Endpoint address whose FIFO buffers are to be reset.
			 */
			static inline void Endpoint_ResetEndpoint(const uint8_t Address) ATTR_ALWAYS_INLINE;
			static inline void Endpoint_ResetEndpoint(const uint8_t Address)
			{
				UERST = (1 << (Address & ENDPOINT_EPNUM_MASK));
 aec:	90 e0       	ldi	r25, 0x00	; 0
 aee:	02 2e       	mov	r0, r18
 af0:	01 c0       	rjmp	.+2      	; 0xaf4 <USB_Device_ProcessControlRequest+0x10c>
 af2:	88 0f       	add	r24, r24
 af4:	0a 94       	dec	r0
 af6:	ea f7       	brpl	.-6      	; 0xaf2 <USB_Device_ProcessControlRequest+0x10a>
 af8:	80 93 ea 00 	sts	0x00EA, r24
 afc:	10 92 ea 00 	sts	0x00EA, r1
				UERST = 0;
 b00:	80 91 eb 00 	lds	r24, 0x00EB

			/** Resets the data toggle of the currently selected endpoint. */
			static inline void Endpoint_ResetDataToggle(void) ATTR_ALWAYS_INLINE;
			static inline void Endpoint_ResetDataToggle(void)
			{
				UECONX |= (1 << RSTDT);
 b04:	88 60       	ori	r24, 0x08	; 8
 b06:	80 93 eb 00 	sts	0x00EB, r24
 b0a:	10 92 e9 00 	sts	0x00E9, r1
			 */
			static inline void Endpoint_SelectEndpoint(const uint8_t Address) ATTR_ALWAYS_INLINE;
			static inline void Endpoint_SelectEndpoint(const uint8_t Address)
			{
				#if !defined(CONTROL_ONLY_DEVICE)
					UENUM = (Address & ENDPOINT_EPNUM_MASK);
 b0e:	80 91 e8 00 	lds	r24, 0x00E8
			 *  \note This is not applicable for non CONTROL type endpoints.
			 */
			static inline void Endpoint_ClearSETUP(void) ATTR_ALWAYS_INLINE;
			static inline void Endpoint_ClearSETUP(void)
			{
				UEINTX &= ~(1 << RXSTPI);
 b12:	87 7f       	andi	r24, 0xF7	; 247
 b14:	82 c0       	rjmp	.+260    	; 0xc1a <__stack+0x11b>
 b16:	91 11       	cpse	r25, r1
					USB_Device_ClearSetFeature();
				}

				break;
			case REQ_SetAddress:
				if (bmRequestType == (REQDIR_HOSTTODEVICE | REQTYPE_STANDARD | REQREC_DEVICE))
 b18:	a0 c0       	rjmp	.+320    	; 0xc5a <__stack+0x15b>
 b1a:	10 91 13 01 	lds	r17, 0x0113
	}
}

static void USB_Device_SetAddress(void)
{
	uint8_t DeviceAddress = (USB_ControlRequest.wValue & 0x7F);
 b1e:	1f 77       	andi	r17, 0x7F	; 127
 b20:	80 91 e3 00 	lds	r24, 0x00E3
			#endif

			static inline void USB_Device_SetDeviceAddress(const uint8_t Address) ATTR_ALWAYS_INLINE;
			static inline void USB_Device_SetDeviceAddress(const uint8_t Address)
			{
				UDADDR = (UDADDR & (1 << ADDEN)) | (Address & 0x7F);
 b24:	80 78       	andi	r24, 0x80	; 128
 b26:	81 2b       	or	r24, r17
 b28:	80 93 e3 00 	sts	0x00E3, r24
 b2c:	80 91 e8 00 	lds	r24, 0x00E8
 b30:	87 7f       	andi	r24, 0xF7	; 247
 b32:	80 93 e8 00 	sts	0x00E8, r24
 b36:	e4 dd       	rcall	.-1080   	; 0x700 <Endpoint_ClearStatusStage>

	USB_Device_SetDeviceAddress(DeviceAddress);

	Endpoint_ClearSETUP();

	Endpoint_ClearStatusStage();
 b38:	80 91 e8 00 	lds	r24, 0x00E8
			 *  \return Boolean \c true if the current endpoint is ready for an IN packet, \c false otherwise.
			 */
			static inline bool Endpoint_IsINReady(void) ATTR_WARN_UNUSED_RESULT ATTR_ALWAYS_INLINE;
			static inline bool Endpoint_IsINReady(void)
			{
				return ((UEINTX & (1 << TXINI)) ? true : false);
 b3c:	80 ff       	sbrs	r24, 0
 b3e:	fc cf       	rjmp	.-8      	; 0xb38 <__stack+0x39>

	while (!(Endpoint_IsINReady()));
 b40:	80 91 e3 00 	lds	r24, 0x00E3
			static inline void USB_Device_EnableDeviceAddress(const uint8_t Address) ATTR_ALWAYS_INLINE;
			static inline void USB_Device_EnableDeviceAddress(const uint8_t Address)
			{
				(void)Address;

				UDADDR |= (1 << ADDEN);
 b44:	80 68       	ori	r24, 0x80	; 128
 b46:	80 93 e3 00 	sts	0x00E3, r24
 b4a:	11 23       	and	r17, r17
 b4c:	11 f0       	breq	.+4      	; 0xb52 <__stack+0x53>

	USB_Device_EnableDeviceAddress(DeviceAddress);

	USB_DeviceState = (DeviceAddress) ? DEVICE_STATE_Addressed : DEVICE_STATE_Default;
 b4e:	83 e0       	ldi	r24, 0x03	; 3
 b50:	01 c0       	rjmp	.+2      	; 0xb54 <__stack+0x55>
 b52:	82 e0       	ldi	r24, 0x02	; 2
 b54:	80 93 10 01 	sts	0x0110, r24
 b58:	80 c0       	rjmp	.+256    	; 0xc5a <__stack+0x15b>
 b5a:	90 58       	subi	r25, 0x80	; 128
 b5c:	92 30       	cpi	r25, 0x02	; 2
				if (bmRequestType == (REQDIR_HOSTTODEVICE | REQTYPE_STANDARD | REQREC_DEVICE))
				  USB_Device_SetAddress();

				break;
			case REQ_GetDescriptor:
				if ((bmRequestType == (REQDIR_DEVICETOHOST | REQTYPE_STANDARD | REQREC_DEVICE)) ||
 b5e:	08 f0       	brcs	.+2      	; 0xb62 <__stack+0x63>
 b60:	7c c0       	rjmp	.+248    	; 0xc5a <__stack+0x15b>
 b62:	80 91 13 01 	lds	r24, 0x0113
	    !(defined(USE_FLASH_DESCRIPTORS) || defined(USE_EEPROM_DESCRIPTORS) || defined(USE_RAM_DESCRIPTORS))
	uint8_t DescriptorAddressSpace;
	#endif

	#if !defined(NO_INTERNAL_SERIAL) && (USE_INTERNAL_SERIAL != NO_DESCRIPTOR)
	if (USB_ControlRequest.wValue == ((DTYPE_String << 8) | USE_INTERNAL_SERIAL))
 b66:	90 91 14 01 	lds	r25, 0x0114
 b6a:	8c 3d       	cpi	r24, 0xDC	; 220
 b6c:	23 e0       	ldi	r18, 0x03	; 3
 b6e:	92 07       	cpc	r25, r18
 b70:	71 f5       	brne	.+92     	; 0xbce <__stack+0xcf>
 b72:	83 e0       	ldi	r24, 0x03	; 3
 b74:	8a 83       	std	Y+2, r24	; 0x02
	{
		USB_Descriptor_Header_t Header;
		uint16_t                UnicodeString[INTERNAL_SERIAL_LENGTH_BITS / 4];
	} SignatureDescriptor;

	SignatureDescriptor.Header.Type = DTYPE_String;
 b76:	8a e2       	ldi	r24, 0x2A	; 42
 b78:	89 83       	std	Y+1, r24	; 0x01
	SignatureDescriptor.Header.Size = USB_STRING_LEN(INTERNAL_SERIAL_LENGTH_BITS / 4);
 b7a:	4f b7       	in	r20, 0x3f	; 63
 b7c:	f8 94       	cli
			static inline uint_reg_t GetGlobalInterruptMask(void)
			{
				GCC_MEMORY_BARRIER();

				#if (ARCH == ARCH_AVR8)
				return SREG;
 b7e:	de 01       	movw	r26, r28
			static inline void GlobalInterruptDisable(void)
			{
				GCC_MEMORY_BARRIER();

				#if (ARCH == ARCH_AVR8)
				cli();
 b80:	13 96       	adiw	r26, 0x03	; 3
				__builtin_ssrf(AVR32_SR_GM_OFFSET);
				#elif (ARCH == ARCH_XMEGA)
				cli();
				#endif

				GCC_MEMORY_BARRIER();
 b82:	20 e0       	ldi	r18, 0x00	; 0
 b84:	3e e0       	ldi	r19, 0x0E	; 14
				uint_reg_t CurrentGlobalInt = GetGlobalInterruptMask();
				GlobalInterruptDisable();

				uint8_t SigReadAddress = INTERNAL_SERIAL_START_ADDRESS;

				for (uint8_t SerialCharNum = 0; SerialCharNum < (INTERNAL_SERIAL_LENGTH_BITS / 4); SerialCharNum++)
 b86:	51 e2       	ldi	r21, 0x21	; 33
			static inline void USB_Device_GetSerialString(uint16_t* const UnicodeString)
			{
				uint_reg_t CurrentGlobalInt = GetGlobalInterruptMask();
				GlobalInterruptDisable();

				uint8_t SigReadAddress = INTERNAL_SERIAL_START_ADDRESS;
 b88:	e3 2f       	mov	r30, r19

				for (uint8_t SerialCharNum = 0; SerialCharNum < (INTERNAL_SERIAL_LENGTH_BITS / 4); SerialCharNum++)
				{
					uint8_t SerialByte = boot_signature_byte_get(SigReadAddress);
 b8a:	f0 e0       	ldi	r31, 0x00	; 0
 b8c:	50 93 57 00 	sts	0x0057, r21
 b90:	e4 91       	lpm	r30, Z
 b92:	20 ff       	sbrs	r18, 0
 b94:	03 c0       	rjmp	.+6      	; 0xb9c <__stack+0x9d>

					if (SerialCharNum & 0x01)
 b96:	e2 95       	swap	r30
 b98:	ef 70       	andi	r30, 0x0F	; 15
					{
						SerialByte >>= 4;
 b9a:	3f 5f       	subi	r19, 0xFF	; 255
 b9c:	ef 70       	andi	r30, 0x0F	; 15
						SigReadAddress++;
 b9e:	8e 2f       	mov	r24, r30
					}

					SerialByte &= 0x0F;
 ba0:	90 e0       	ldi	r25, 0x00	; 0
 ba2:	ea 30       	cpi	r30, 0x0A	; 10
 ba4:	10 f0       	brcs	.+4      	; 0xbaa <__stack+0xab>

					UnicodeString[SerialCharNum] = cpu_to_le16((SerialByte >= 10) ?
 ba6:	c7 96       	adiw	r24, 0x37	; 55
 ba8:	01 c0       	rjmp	.+2      	; 0xbac <__stack+0xad>
 baa:	c0 96       	adiw	r24, 0x30	; 48
 bac:	8d 93       	st	X+, r24
 bae:	9d 93       	st	X+, r25
 bb0:	2f 5f       	subi	r18, 0xFF	; 255
 bb2:	24 31       	cpi	r18, 0x14	; 20
				uint_reg_t CurrentGlobalInt = GetGlobalInterruptMask();
				GlobalInterruptDisable();

				uint8_t SigReadAddress = INTERNAL_SERIAL_START_ADDRESS;

				for (uint8_t SerialCharNum = 0; SerialCharNum < (INTERNAL_SERIAL_LENGTH_BITS / 4); SerialCharNum++)
 bb4:	49 f7       	brne	.-46     	; 0xb88 <__stack+0x89>
 bb6:	4f bf       	out	0x3f, r20	; 63
 bb8:	80 91 e8 00 	lds	r24, 0x00E8
			 *  \note This is not applicable for non CONTROL type endpoints.
			 */
			static inline void Endpoint_ClearSETUP(void) ATTR_ALWAYS_INLINE;
			static inline void Endpoint_ClearSETUP(void)
			{
				UEINTX &= ~(1 << RXSTPI);
 bbc:	87 7f       	andi	r24, 0xF7	; 247
 bbe:	80 93 e8 00 	sts	0x00E8, r24
 bc2:	6a e2       	ldi	r22, 0x2A	; 42
 bc4:	70 e0       	ldi	r23, 0x00	; 0

	USB_Device_GetSerialString(SignatureDescriptor.UnicodeString);

	Endpoint_ClearSETUP();

	Endpoint_Write_Control_Stream_LE(&SignatureDescriptor, sizeof(SignatureDescriptor));
 bc6:	ce 01       	movw	r24, r28
 bc8:	01 96       	adiw	r24, 0x01	; 1
 bca:	65 dc       	rcall	.-1846   	; 0x496 <Endpoint_Write_Control_Stream_LE>
 bcc:	12 c0       	rjmp	.+36     	; 0xbf2 <__stack+0xf3>
 bce:	ae 01       	movw	r20, r28
 bd0:	4f 5f       	subi	r20, 0xFF	; 255
 bd2:	5f 4f       	sbci	r21, 0xFF	; 255
		USB_Device_GetInternalSerialDescriptor();
		return;
	}
	#endif

	if ((DescriptorSize = CALLBACK_USB_GetDescriptor(USB_ControlRequest.wValue, USB_ControlRequest.wIndex,
 bd4:	60 91 15 01 	lds	r22, 0x0115
 bd8:	9c db       	rcall	.-2248   	; 0x312 <CALLBACK_USB_GetDescriptor>
 bda:	00 97       	sbiw	r24, 0x00	; 0
 bdc:	09 f4       	brne	.+2      	; 0xbe0 <__stack+0xe1>
 bde:	3d c0       	rjmp	.+122    	; 0xc5a <__stack+0x15b>
 be0:	20 91 e8 00 	lds	r18, 0x00E8
 be4:	27 7f       	andi	r18, 0xF7	; 247
 be6:	20 93 e8 00 	sts	0x00E8, r18
 bea:	bc 01       	movw	r22, r24
 bec:	89 81       	ldd	r24, Y+1	; 0x01
 bee:	9a 81       	ldd	r25, Y+2	; 0x02
 bf0:	b3 dc       	rcall	.-1690   	; 0x558 <Endpoint_Write_Control_PStream_LE>
	#if defined(USE_RAM_DESCRIPTORS) || !defined(ARCH_HAS_MULTI_ADDRESS_SPACE)
	Endpoint_Write_Control_Stream_LE(DescriptorPointer, DescriptorSize);
	#elif defined(USE_EEPROM_DESCRIPTORS)
	Endpoint_Write_Control_EStream_LE(DescriptorPointer, DescriptorSize);
	#elif defined(USE_FLASH_DESCRIPTORS)
	Endpoint_Write_Control_PStream_LE(DescriptorPointer, DescriptorSize);
 bf2:	80 91 e8 00 	lds	r24, 0x00E8
 bf6:	8b 77       	andi	r24, 0x7B	; 123
 bf8:	80 93 e8 00 	sts	0x00E8, r24
			 */
			static inline void Endpoint_ClearOUT(void) ATTR_ALWAYS_INLINE;
			static inline void Endpoint_ClearOUT(void)
			{
				#if !defined(CONTROL_ONLY_DEVICE)
					UEINTX &= ~((1 << RXOUTI) | (1 << FIFOCON));
 bfc:	2e c0       	rjmp	.+92     	; 0xc5a <__stack+0x15b>
 bfe:	90 38       	cpi	r25, 0x80	; 128
 c00:	61 f5       	brne	.+88     	; 0xc5a <__stack+0x15b>
 c02:	80 91 e8 00 	lds	r24, 0x00E8
 c06:	87 7f       	andi	r24, 0xF7	; 247
					USB_Device_GetDescriptor();
				}

				break;
			case REQ_GetConfiguration:
				if (bmRequestType == (REQDIR_DEVICETOHOST | REQTYPE_STANDARD | REQREC_DEVICE))
 c08:	80 93 e8 00 	sts	0x00E8, r24
			 *  \note This is not applicable for non CONTROL type endpoints.
			 */
			static inline void Endpoint_ClearSETUP(void) ATTR_ALWAYS_INLINE;
			static inline void Endpoint_ClearSETUP(void)
			{
				UEINTX &= ~(1 << RXSTPI);
 c0c:	80 91 0c 01 	lds	r24, 0x010C
 c10:	80 93 f1 00 	sts	0x00F1, r24
 c14:	80 91 e8 00 	lds	r24, 0x00E8

static void USB_Device_GetConfiguration(void)
{
	Endpoint_ClearSETUP();

	Endpoint_Write_8(USB_Device_ConfigurationNumber);
 c18:	8e 77       	andi	r24, 0x7E	; 126
			 *  \param[in] Data  Data to write into the the currently selected endpoint's FIFO buffer.
			 */
			static inline void Endpoint_Write_8(const uint8_t Data) ATTR_ALWAYS_INLINE;
			static inline void Endpoint_Write_8(const uint8_t Data)
			{
				UEDATX = Data;
 c1a:	80 93 e8 00 	sts	0x00E8, r24
			 */
			static inline void Endpoint_ClearIN(void) ATTR_ALWAYS_INLINE;
			static inline void Endpoint_ClearIN(void)
			{
				#if !defined(CONTROL_ONLY_DEVICE)
					UEINTX &= ~((1 << TXINI) | (1 << FIFOCON));
 c1e:	70 dd       	rcall	.-1312   	; 0x700 <Endpoint_ClearStatusStage>
 c20:	1c c0       	rjmp	.+56     	; 0xc5a <__stack+0x15b>
 c22:	91 11       	cpse	r25, r1
 c24:	1a c0       	rjmp	.+52     	; 0xc5a <__stack+0x15b>
 c26:	90 91 13 01 	lds	r25, 0x0113
	Endpoint_ClearIN();

	Endpoint_ClearStatusStage();
 c2a:	92 30       	cpi	r25, 0x02	; 2
 c2c:	b0 f4       	brcc	.+44     	; 0xc5a <__stack+0x15b>
				if (bmRequestType == (REQDIR_DEVICETOHOST | REQTYPE_STANDARD | REQREC_DEVICE))
				  USB_Device_GetConfiguration();

				break;
			case REQ_SetConfiguration:
				if (bmRequestType == (REQDIR_HOSTTODEVICE | REQTYPE_STANDARD | REQREC_DEVICE))
 c2e:	80 91 e8 00 	lds	r24, 0x00E8
}

static void USB_Device_SetConfiguration(void)
{
	#if defined(FIXED_NUM_CONFIGURATIONS)
	if ((uint8_t)USB_ControlRequest.wValue > FIXED_NUM_CONFIGURATIONS)
 c32:	87 7f       	andi	r24, 0xF7	; 247
 c34:	80 93 e8 00 	sts	0x00E8, r24
 c38:	90 93 0c 01 	sts	0x010C, r25
			 *  \note This is not applicable for non CONTROL type endpoints.
			 */
			static inline void Endpoint_ClearSETUP(void) ATTR_ALWAYS_INLINE;
			static inline void Endpoint_ClearSETUP(void)
			{
				UEINTX &= ~(1 << RXSTPI);
 c3c:	61 dd       	rcall	.-1342   	; 0x700 <Endpoint_ClearStatusStage>
 c3e:	80 91 0c 01 	lds	r24, 0x010C
 c42:	81 11       	cpse	r24, r1
	#endif
	#endif

	Endpoint_ClearSETUP();

	USB_Device_ConfigurationNumber = (uint8_t)USB_ControlRequest.wValue;
 c44:	04 c0       	rjmp	.+8      	; 0xc4e <__stack+0x14f>
 c46:	80 91 e3 00 	lds	r24, 0x00E3

	Endpoint_ClearStatusStage();
 c4a:	87 ff       	sbrs	r24, 7

	if (USB_Device_ConfigurationNumber)
 c4c:	02 c0       	rjmp	.+4      	; 0xc52 <__stack+0x153>
 c4e:	84 e0       	ldi	r24, 0x04	; 4
 c50:	01 c0       	rjmp	.+2      	; 0xc54 <__stack+0x155>
 c52:	81 e0       	ldi	r24, 0x01	; 1
			}

			static inline bool USB_Device_IsAddressSet(void) ATTR_ALWAYS_INLINE ATTR_WARN_UNUSED_RESULT;
			static inline bool USB_Device_IsAddressSet(void)
			{
				return (UDADDR & (1 << ADDEN));
 c54:	80 93 10 01 	sts	0x0110, r24
	  USB_DeviceState = DEVICE_STATE_Configured;
	else
	  USB_DeviceState = (USB_Device_IsAddressSet()) ? DEVICE_STATE_Configured : DEVICE_STATE_Powered;
 c58:	58 db       	rcall	.-2384   	; 0x30a <EVENT_USB_Device_ConfigurationChanged>
 c5a:	80 91 e8 00 	lds	r24, 0x00E8
 c5e:	83 ff       	sbrs	r24, 3
 c60:	0a c0       	rjmp	.+20     	; 0xc76 <__stack+0x177>
 c62:	80 91 e8 00 	lds	r24, 0x00E8

	EVENT_USB_Device_ConfigurationChanged();
 c66:	87 7f       	andi	r24, 0xF7	; 247
 c68:	80 93 e8 00 	sts	0x00E8, r24
			 *  \return Boolean \c true if the selected endpoint has received a SETUP packet, \c false otherwise.
			 */
			static inline bool Endpoint_IsSETUPReceived(void) ATTR_WARN_UNUSED_RESULT ATTR_ALWAYS_INLINE;
			static inline bool Endpoint_IsSETUPReceived(void)
			{
				return ((UEINTX & (1 << RXSTPI)) ? true : false);
 c6c:	80 91 eb 00 	lds	r24, 0x00EB
			default:
				break;
		}
	}

	if (Endpoint_IsSETUPReceived())
 c70:	80 62       	ori	r24, 0x20	; 32
			 *  \note This is not applicable for non CONTROL type endpoints.
			 */
			static inline void Endpoint_ClearSETUP(void) ATTR_ALWAYS_INLINE;
			static inline void Endpoint_ClearSETUP(void)
			{
				UEINTX &= ~(1 << RXSTPI);
 c72:	80 93 eb 00 	sts	0x00EB, r24
 c76:	aa 96       	adiw	r28, 0x2a	; 42
 c78:	0f b6       	in	r0, 0x3f	; 63
 c7a:	f8 94       	cli
			 *  \ingroup Group_EndpointPacketManagement_AVR8
			 */
			static inline void Endpoint_StallTransaction(void) ATTR_ALWAYS_INLINE;
			static inline void Endpoint_StallTransaction(void)
			{
				UECONX |= (1 << STALLRQ);
 c7c:	de bf       	out	0x3e, r29	; 62
 c7e:	0f be       	out	0x3f, r0	; 63
 c80:	cd bf       	out	0x3d, r28	; 61
 c82:	df 91       	pop	r29
 c84:	cf 91       	pop	r28
	{
		Endpoint_ClearSETUP();
		Endpoint_StallTransaction();
	}
}
 c86:	1f 91       	pop	r17
 c88:	08 95       	ret

00000c8a <USB_Event_Stub>:
 c8a:	08 95       	ret

00000c8c <USB_USBTask>:
 c8c:	cf 93       	push	r28
 c8e:	80 91 10 01 	lds	r24, 0x0110
 c92:	88 23       	and	r24, r24
 c94:	a9 f0       	breq	.+42     	; 0xcc0 <USB_USBTask+0x34>
 c96:	80 91 e9 00 	lds	r24, 0x00E9
			 */
			static inline uint8_t Endpoint_GetCurrentEndpoint(void) ATTR_WARN_UNUSED_RESULT ATTR_ALWAYS_INLINE;
			static inline uint8_t Endpoint_GetCurrentEndpoint(void)
			{
				#if !defined(CONTROL_ONLY_DEVICE)
					return ((UENUM & ENDPOINT_EPNUM_MASK) | Endpoint_GetEndpointDirection());
 c9a:	8f 70       	andi	r24, 0x0F	; 15
			 *  \return The currently selected endpoint's direction, as a \c ENDPOINT_DIR_* mask.
			 */
			static inline uint8_t Endpoint_GetEndpointDirection(void) ATTR_WARN_UNUSED_RESULT ATTR_ALWAYS_INLINE;
			static inline uint8_t Endpoint_GetEndpointDirection(void)
			{
				return (UECFG0X & (1 << EPDIR)) ? ENDPOINT_DIR_IN : ENDPOINT_DIR_OUT;
 c9c:	90 91 ec 00 	lds	r25, 0x00EC
 ca0:	90 ff       	sbrs	r25, 0
 ca2:	02 c0       	rjmp	.+4      	; 0xca8 <USB_USBTask+0x1c>
 ca4:	90 e8       	ldi	r25, 0x80	; 128
 ca6:	01 c0       	rjmp	.+2      	; 0xcaa <USB_USBTask+0x1e>
 ca8:	90 e0       	ldi	r25, 0x00	; 0
			 */
			static inline uint8_t Endpoint_GetCurrentEndpoint(void) ATTR_WARN_UNUSED_RESULT ATTR_ALWAYS_INLINE;
			static inline uint8_t Endpoint_GetCurrentEndpoint(void)
			{
				#if !defined(CONTROL_ONLY_DEVICE)
					return ((UENUM & ENDPOINT_EPNUM_MASK) | Endpoint_GetEndpointDirection());
 caa:	c9 2f       	mov	r28, r25
 cac:	c8 2b       	or	r28, r24
			 */
			static inline void Endpoint_SelectEndpoint(const uint8_t Address) ATTR_ALWAYS_INLINE;
			static inline void Endpoint_SelectEndpoint(const uint8_t Address)
			{
				#if !defined(CONTROL_ONLY_DEVICE)
					UENUM = (Address & ENDPOINT_EPNUM_MASK);
 cae:	10 92 e9 00 	sts	0x00E9, r1
			 *  \return Boolean \c true if the selected endpoint has received a SETUP packet, \c false otherwise.
			 */
			static inline bool Endpoint_IsSETUPReceived(void) ATTR_WARN_UNUSED_RESULT ATTR_ALWAYS_INLINE;
			static inline bool Endpoint_IsSETUPReceived(void)
			{
				return ((UEINTX & (1 << RXSTPI)) ? true : false);
 cb2:	80 91 e8 00 	lds	r24, 0x00E8

	uint8_t PrevEndpoint = Endpoint_GetCurrentEndpoint();

	Endpoint_SelectEndpoint(ENDPOINT_CONTROLEP);

	if (Endpoint_IsSETUPReceived())
 cb6:	83 fd       	sbrc	r24, 3
	  USB_Device_ProcessControlRequest();
 cb8:	97 de       	rcall	.-722    	; 0x9e8 <USB_Device_ProcessControlRequest>
 cba:	cf 70       	andi	r28, 0x0F	; 15
			 */
			static inline void Endpoint_SelectEndpoint(const uint8_t Address) ATTR_ALWAYS_INLINE;
			static inline void Endpoint_SelectEndpoint(const uint8_t Address)
			{
				#if !defined(CONTROL_ONLY_DEVICE)
					UENUM = (Address & ENDPOINT_EPNUM_MASK);
 cbc:	c0 93 e9 00 	sts	0x00E9, r28
 cc0:	cf 91       	pop	r28
	#elif defined(USB_CAN_BE_HOST)
		USB_HostTask();
	#elif defined(USB_CAN_BE_DEVICE)
		USB_DeviceTask();
	#endif
}
 cc2:	08 95       	ret

00000cc4 <MIDI_Device_ConfigureEndpoints>:
 cc4:	cf 93       	push	r28
#define  __INCLUDE_FROM_MIDI_DRIVER
#define  __INCLUDE_FROM_MIDI_DEVICE_C
#include "MIDIClassDevice.h"

bool MIDI_Device_ConfigureEndpoints(USB_ClassInfo_MIDI_Device_t* const MIDIInterfaceInfo)
{
 cc6:	df 93       	push	r29
 cc8:	ec 01       	movw	r28, r24
	memset(&MIDIInterfaceInfo->State, 0x00, sizeof(MIDIInterfaceInfo->State));
 cca:	1b 86       	std	Y+11, r1	; 0x0b

	MIDIInterfaceInfo->Config.DataINEndpoint.Type  = EP_TYPE_BULK;
 ccc:	82 e0       	ldi	r24, 0x02	; 2
 cce:	8c 83       	std	Y+4, r24	; 0x04
	MIDIInterfaceInfo->Config.DataOUTEndpoint.Type = EP_TYPE_BULK;
 cd0:	89 87       	std	Y+9, r24	; 0x09

	if (!(Endpoint_ConfigureEndpointTable(&MIDIInterfaceInfo->Config.DataINEndpoint, 1)))
 cd2:	61 e0       	ldi	r22, 0x01	; 1
 cd4:	ce 01       	movw	r24, r28
 cd6:	01 96       	adiw	r24, 0x01	; 1
 cd8:	d6 dc       	rcall	.-1620   	; 0x686 <Endpoint_ConfigureEndpointTable>
 cda:	88 23       	and	r24, r24
 cdc:	31 f0       	breq	.+12     	; 0xcea <MIDI_Device_ConfigureEndpoints+0x26>
 cde:	61 e0       	ldi	r22, 0x01	; 1
	  return false;

	if (!(Endpoint_ConfigureEndpointTable(&MIDIInterfaceInfo->Config.DataOUTEndpoint, 1)))
 ce0:	ce 01       	movw	r24, r28
 ce2:	06 96       	adiw	r24, 0x06	; 6
 ce4:	df 91       	pop	r29
	  return false;

	return true;
}
 ce6:	cf 91       	pop	r28
 ce8:	ce cc       	rjmp	.-1636   	; 0x686 <Endpoint_ConfigureEndpointTable>
	MIDIInterfaceInfo->Config.DataOUTEndpoint.Type = EP_TYPE_BULK;

	if (!(Endpoint_ConfigureEndpointTable(&MIDIInterfaceInfo->Config.DataINEndpoint, 1)))
	  return false;

	if (!(Endpoint_ConfigureEndpointTable(&MIDIInterfaceInfo->Config.DataOUTEndpoint, 1)))
 cea:	80 e0       	ldi	r24, 0x00	; 0
 cec:	df 91       	pop	r29
	  return false;

	return true;
}
 cee:	cf 91       	pop	r28
 cf0:	08 95       	ret

00000cf2 <MIDI_Device_SendEventPacket>:
 cf2:	fc 01       	movw	r30, r24
 cf4:	cb 01       	movw	r24, r22
}

uint8_t MIDI_Device_SendEventPacket(USB_ClassInfo_MIDI_Device_t* const MIDIInterfaceInfo,
                                    const MIDI_EventPacket_t* const Event)
{
	if (USB_DeviceState != DEVICE_STATE_Configured)
 cf6:	20 91 10 01 	lds	r18, 0x0110
 cfa:	24 30       	cpi	r18, 0x04	; 4
 cfc:	a9 f4       	brne	.+42     	; 0xd28 <MIDI_Device_SendEventPacket+0x36>
			 */
			static inline void Endpoint_SelectEndpoint(const uint8_t Address) ATTR_ALWAYS_INLINE;
			static inline void Endpoint_SelectEndpoint(const uint8_t Address)
			{
				#if !defined(CONTROL_ONLY_DEVICE)
					UENUM = (Address & ENDPOINT_EPNUM_MASK);
 cfe:	21 81       	ldd	r18, Z+1	; 0x01
 d00:	2f 70       	andi	r18, 0x0F	; 15
 d02:	20 93 e9 00 	sts	0x00E9, r18

	uint8_t ErrorCode;

	Endpoint_SelectEndpoint(MIDIInterfaceInfo->Config.DataINEndpoint.Address);

	if ((ErrorCode = Endpoint_Write_Stream_LE(Event, sizeof(MIDI_EventPacket_t), NULL)) != ENDPOINT_RWSTREAM_NoError)
 d06:	40 e0       	ldi	r20, 0x00	; 0
 d08:	50 e0       	ldi	r21, 0x00	; 0
 d0a:	64 e0       	ldi	r22, 0x04	; 4
 d0c:	70 e0       	ldi	r23, 0x00	; 0
 d0e:	33 db       	rcall	.-2458   	; 0x376 <Endpoint_Write_Stream_LE>
 d10:	81 11       	cpse	r24, r1
 d12:	0d c0       	rjmp	.+26     	; 0xd2e <MIDI_Device_SendEventPacket+0x3c>
 d14:	80 91 e8 00 	lds	r24, 0x00E8
			 *          on its direction.
			 */
			static inline bool Endpoint_IsReadWriteAllowed(void) ATTR_WARN_UNUSED_RESULT ATTR_ALWAYS_INLINE;
			static inline bool Endpoint_IsReadWriteAllowed(void)
			{
				return ((UEINTX & (1 << RWAL)) ? true : false);
 d18:	85 fd       	sbrc	r24, 5
	  return ErrorCode;

	if (!(Endpoint_IsReadWriteAllowed()))
 d1a:	08 c0       	rjmp	.+16     	; 0xd2c <MIDI_Device_SendEventPacket+0x3a>
 d1c:	80 91 e8 00 	lds	r24, 0x00E8
			 */
			static inline void Endpoint_ClearIN(void) ATTR_ALWAYS_INLINE;
			static inline void Endpoint_ClearIN(void)
			{
				#if !defined(CONTROL_ONLY_DEVICE)
					UEINTX &= ~((1 << TXINI) | (1 << FIFOCON));
 d20:	8e 77       	andi	r24, 0x7E	; 126
 d22:	80 93 e8 00 	sts	0x00E8, r24
 d26:	02 c0       	rjmp	.+4      	; 0xd2c <MIDI_Device_SendEventPacket+0x3a>
 d28:	82 e0       	ldi	r24, 0x02	; 2

uint8_t MIDI_Device_SendEventPacket(USB_ClassInfo_MIDI_Device_t* const MIDIInterfaceInfo,
                                    const MIDI_EventPacket_t* const Event)
{
	if (USB_DeviceState != DEVICE_STATE_Configured)
	  return ENDPOINT_RWSTREAM_DeviceDisconnected;
 d2a:	08 95       	ret
 d2c:	80 e0       	ldi	r24, 0x00	; 0
	  return ErrorCode;

	if (!(Endpoint_IsReadWriteAllowed()))
	  Endpoint_ClearIN();

	return ENDPOINT_RWSTREAM_NoError;
 d2e:	08 95       	ret

00000d30 <MIDI_Device_Flush>:
}
 d30:	20 91 10 01 	lds	r18, 0x0110

uint8_t MIDI_Device_Flush(USB_ClassInfo_MIDI_Device_t* const MIDIInterfaceInfo)
{
	if (USB_DeviceState != DEVICE_STATE_Configured)
 d34:	24 30       	cpi	r18, 0x04	; 4
 d36:	99 f4       	brne	.+38     	; 0xd5e <MIDI_Device_Flush+0x2e>
			 */
			static inline void Endpoint_SelectEndpoint(const uint8_t Address) ATTR_ALWAYS_INLINE;
			static inline void Endpoint_SelectEndpoint(const uint8_t Address)
			{
				#if !defined(CONTROL_ONLY_DEVICE)
					UENUM = (Address & ENDPOINT_EPNUM_MASK);
 d38:	fc 01       	movw	r30, r24
 d3a:	81 81       	ldd	r24, Z+1	; 0x01
 d3c:	8f 70       	andi	r24, 0x0F	; 15
 d3e:	80 93 e9 00 	sts	0x00E9, r24
			static inline uint16_t Endpoint_BytesInEndpoint(void)
			{
				#if (defined(USB_SERIES_6_AVR) || defined(USB_SERIES_7_AVR))
					return UEBCX;
				#elif defined(USB_SERIES_4_AVR)
					return (((uint16_t)UEBCHX << 8) | UEBCLX);
 d42:	20 91 f3 00 	lds	r18, 0x00F3
 d46:	80 91 f2 00 	lds	r24, 0x00F2
 d4a:	90 e0       	ldi	r25, 0x00	; 0
 d4c:	92 2b       	or	r25, r18

	uint8_t ErrorCode;

	Endpoint_SelectEndpoint(MIDIInterfaceInfo->Config.DataINEndpoint.Address);

	if (Endpoint_BytesInEndpoint())
 d4e:	89 2b       	or	r24, r25
 d50:	41 f0       	breq	.+16     	; 0xd62 <MIDI_Device_Flush+0x32>
			 */
			static inline void Endpoint_ClearIN(void) ATTR_ALWAYS_INLINE;
			static inline void Endpoint_ClearIN(void)
			{
				#if !defined(CONTROL_ONLY_DEVICE)
					UEINTX &= ~((1 << TXINI) | (1 << FIFOCON));
 d52:	80 91 e8 00 	lds	r24, 0x00E8
 d56:	8e 77       	andi	r24, 0x7E	; 126
 d58:	80 93 e8 00 	sts	0x00E8, r24
	{
		Endpoint_ClearIN();

		if ((ErrorCode = Endpoint_WaitUntilReady()) != ENDPOINT_READYWAIT_NoError)
 d5c:	f2 cc       	rjmp	.-1564   	; 0x742 <Endpoint_WaitUntilReady>
 d5e:	82 e0       	ldi	r24, 0x02	; 2
}

uint8_t MIDI_Device_Flush(USB_ClassInfo_MIDI_Device_t* const MIDIInterfaceInfo)
{
	if (USB_DeviceState != DEVICE_STATE_Configured)
	  return ENDPOINT_RWSTREAM_DeviceDisconnected;
 d60:	08 95       	ret
 d62:	80 e0       	ldi	r24, 0x00	; 0

		if ((ErrorCode = Endpoint_WaitUntilReady()) != ENDPOINT_READYWAIT_NoError)
		  return ErrorCode;
	}

	return ENDPOINT_READYWAIT_NoError;
 d64:	08 95       	ret

00000d66 <MIDI_Device_USBTask>:
}
 d66:	20 91 10 01 	lds	r18, 0x0110
	return true;
}

void MIDI_Device_USBTask(USB_ClassInfo_MIDI_Device_t* const MIDIInterfaceInfo)
{
	if (USB_DeviceState != DEVICE_STATE_Configured)
 d6a:	24 30       	cpi	r18, 0x04	; 4
 d6c:	49 f4       	brne	.+18     	; 0xd80 <MIDI_Device_USBTask+0x1a>
			 */
			static inline void Endpoint_SelectEndpoint(const uint8_t Address) ATTR_ALWAYS_INLINE;
			static inline void Endpoint_SelectEndpoint(const uint8_t Address)
			{
				#if !defined(CONTROL_ONLY_DEVICE)
					UENUM = (Address & ENDPOINT_EPNUM_MASK);
 d6e:	fc 01       	movw	r30, r24
 d70:	21 81       	ldd	r18, Z+1	; 0x01
 d72:	2f 70       	andi	r18, 0x0F	; 15
 d74:	20 93 e9 00 	sts	0x00E9, r18
			 *  \return Boolean \c true if the current endpoint is ready for an IN packet, \c false otherwise.
			 */
			static inline bool Endpoint_IsINReady(void) ATTR_WARN_UNUSED_RESULT ATTR_ALWAYS_INLINE;
			static inline bool Endpoint_IsINReady(void)
			{
				return ((UEINTX & (1 << TXINI)) ? true : false);
 d78:	20 91 e8 00 	lds	r18, 0x00E8
	  return;

	#if !defined(NO_CLASS_DRIVER_AUTOFLUSH)
	Endpoint_SelectEndpoint(MIDIInterfaceInfo->Config.DataINEndpoint.Address);

	if (Endpoint_IsINReady())
 d7c:	20 fd       	sbrc	r18, 0
	  MIDI_Device_Flush(MIDIInterfaceInfo);
 d7e:	d8 cf       	rjmp	.-80     	; 0xd30 <MIDI_Device_Flush>
 d80:	08 95       	ret

00000d82 <MIDI_Device_ReceiveEventPacket>:
 d82:	fc 01       	movw	r30, r24
	return ENDPOINT_READYWAIT_NoError;
}

bool MIDI_Device_ReceiveEventPacket(USB_ClassInfo_MIDI_Device_t* const MIDIInterfaceInfo,
                                    MIDI_EventPacket_t* const Event)
{
 d84:	cb 01       	movw	r24, r22
	if (USB_DeviceState != DEVICE_STATE_Configured)
 d86:	20 91 10 01 	lds	r18, 0x0110
 d8a:	24 30       	cpi	r18, 0x04	; 4
 d8c:	11 f0       	breq	.+4      	; 0xd92 <MIDI_Device_ReceiveEventPacket+0x10>
	  return false;
 d8e:	80 e0       	ldi	r24, 0x00	; 0
 d90:	08 95       	ret
			 */
			static inline void Endpoint_SelectEndpoint(const uint8_t Address) ATTR_ALWAYS_INLINE;
			static inline void Endpoint_SelectEndpoint(const uint8_t Address)
			{
				#if !defined(CONTROL_ONLY_DEVICE)
					UENUM = (Address & ENDPOINT_EPNUM_MASK);
 d92:	26 81       	ldd	r18, Z+6	; 0x06
 d94:	2f 70       	andi	r18, 0x0F	; 15
 d96:	20 93 e9 00 	sts	0x00E9, r18
			 *  \return Boolean \c true if current endpoint is has received an OUT packet, \c false otherwise.
			 */
			static inline bool Endpoint_IsOUTReceived(void) ATTR_WARN_UNUSED_RESULT ATTR_ALWAYS_INLINE;
			static inline bool Endpoint_IsOUTReceived(void)
			{
				return ((UEINTX & (1 << RXOUTI)) ? true : false);
 d9a:	20 91 e8 00 	lds	r18, 0x00E8

	Endpoint_SelectEndpoint(MIDIInterfaceInfo->Config.DataOUTEndpoint.Address);

	if (!(Endpoint_IsOUTReceived()))
 d9e:	22 ff       	sbrs	r18, 2
 da0:	f6 cf       	rjmp	.-20     	; 0xd8e <MIDI_Device_ReceiveEventPacket+0xc>
			 *          on its direction.
			 */
			static inline bool Endpoint_IsReadWriteAllowed(void) ATTR_WARN_UNUSED_RESULT ATTR_ALWAYS_INLINE;
			static inline bool Endpoint_IsReadWriteAllowed(void)
			{
				return ((UEINTX & (1 << RWAL)) ? true : false);
 da2:	20 91 e8 00 	lds	r18, 0x00E8
		return false;

	if (!(Endpoint_IsReadWriteAllowed()))
 da6:	25 ff       	sbrs	r18, 5
 da8:	f2 cf       	rjmp	.-28     	; 0xd8e <MIDI_Device_ReceiveEventPacket+0xc>
	  return false;

	Endpoint_Read_Stream_LE(Event, sizeof(MIDI_EventPacket_t), NULL);
 daa:	40 e0       	ldi	r20, 0x00	; 0
 dac:	50 e0       	ldi	r21, 0x00	; 0
 dae:	64 e0       	ldi	r22, 0x04	; 4
 db0:	70 e0       	ldi	r23, 0x00	; 0
 db2:	29 db       	rcall	.-2478   	; 0x406 <Endpoint_Read_Stream_LE>
 db4:	80 91 e8 00 	lds	r24, 0x00E8
 db8:	85 fd       	sbrc	r24, 5

	if (!(Endpoint_IsReadWriteAllowed()))
 dba:	05 c0       	rjmp	.+10     	; 0xdc6 <MIDI_Device_ReceiveEventPacket+0x44>
 dbc:	80 91 e8 00 	lds	r24, 0x00E8
			 */
			static inline void Endpoint_ClearOUT(void) ATTR_ALWAYS_INLINE;
			static inline void Endpoint_ClearOUT(void)
			{
				#if !defined(CONTROL_ONLY_DEVICE)
					UEINTX &= ~((1 << RXOUTI) | (1 << FIFOCON));
 dc0:	8b 77       	andi	r24, 0x7B	; 123
 dc2:	80 93 e8 00 	sts	0x00E8, r24
 dc6:	81 e0       	ldi	r24, 0x01	; 1
	  Endpoint_ClearOUT();

	return true;
 dc8:	08 95       	ret

00000dca <_exit>:
}
 dca:	f8 94       	cli

00000dcc <__stop_program>:
 dcc:	ff cf       	rjmp	.-2      	; 0xdcc <__stop_program>
